
game:     file format elf32-i386


Disassembly of section .text:

00800000 <sulp>:
  800000:	55                   	push   %ebp
  800001:	89 e5                	mov    %esp,%ebp
  800003:	53                   	push   %ebx
  800004:	89 cb                	mov    %ecx,%ebx
  800006:	83 ec 14             	sub    $0x14,%esp
  800009:	89 45 f0             	mov    %eax,-0x10(%ebp)
  80000c:	89 55 f4             	mov    %edx,-0xc(%ebp)
  80000f:	dd 45 f0             	fldl   -0x10(%ebp)
  800012:	dd 1c 24             	fstpl  (%esp)
  800015:	e8 76 ad 03 00       	call   83ad90 <__ulp>
  80001a:	85 db                	test   %ebx,%ebx
  80001c:	74 2c                	je     80004a <sulp+0x4a>
  80001e:	8b 55 f4             	mov    -0xc(%ebp),%edx
  800021:	b8 6b 00 00 00       	mov    $0x6b,%eax
  800026:	81 e2 00 00 f0 7f    	and    $0x7ff00000,%edx
  80002c:	c1 ea 14             	shr    $0x14,%edx
  80002f:	29 d0                	sub    %edx,%eax
  800031:	85 c0                	test   %eax,%eax
  800033:	7e 15                	jle    80004a <sulp+0x4a>
  800035:	c1 e0 14             	shl    $0x14,%eax
  800038:	05 00 00 f0 3f       	add    $0x3ff00000,%eax
  80003d:	89 45 f4             	mov    %eax,-0xc(%ebp)
  800040:	c7 45 f0 00 00 00 00 	movl   $0x0,-0x10(%ebp)
  800047:	dc 4d f0             	fmull  -0x10(%ebp)
  80004a:	83 c4 14             	add    $0x14,%esp
  80004d:	5b                   	pop    %ebx
  80004e:	5d                   	pop    %ebp
  80004f:	c3                   	ret    

00800050 <out_byte>:
  800050:	55                   	push   %ebp
  800051:	89 e5                	mov    %esp,%ebp
  800053:	83 ec 08             	sub    $0x8,%esp
  800056:	e8 db 00 00 00       	call   800136 <__x86.get_pc_thunk.ax>
  80005b:	05 a5 af 04 00       	add    $0x4afa5,%eax
  800060:	8b 55 08             	mov    0x8(%ebp),%edx
  800063:	8b 45 0c             	mov    0xc(%ebp),%eax
  800066:	66 89 55 fc          	mov    %dx,-0x4(%ebp)
  80006a:	88 45 f8             	mov    %al,-0x8(%ebp)
  80006d:	0f b6 45 f8          	movzbl -0x8(%ebp),%eax
  800071:	0f b7 55 fc          	movzwl -0x4(%ebp),%edx
  800075:	ee                   	out    %al,(%dx)
  800076:	90                   	nop
  800077:	c9                   	leave  
  800078:	c3                   	ret    

00800079 <cli>:
  800079:	55                   	push   %ebp
  80007a:	89 e5                	mov    %esp,%ebp
  80007c:	e8 b5 00 00 00       	call   800136 <__x86.get_pc_thunk.ax>
  800081:	05 7f af 04 00       	add    $0x4af7f,%eax
  800086:	fa                   	cli    
  800087:	90                   	nop
  800088:	5d                   	pop    %ebp
  800089:	c3                   	ret    

0080008a <init_timer>:
  80008a:	55                   	push   %ebp
  80008b:	89 e5                	mov    %esp,%ebp
  80008d:	53                   	push   %ebx
  80008e:	83 ec 14             	sub    $0x14,%esp
  800091:	e8 a4 00 00 00       	call   80013a <__x86.get_pc_thunk.bx>
  800096:	81 c3 6a af 04 00    	add    $0x4af6a,%ebx
  80009c:	c7 45 f4 9b 2e 00 00 	movl   $0x2e9b,-0xc(%ebp)
  8000a3:	81 7d f4 ff ff 00 00 	cmpl   $0xffff,-0xc(%ebp)
  8000aa:	7e 34                	jle    8000e0 <init_timer+0x56>
  8000ac:	e8 c8 ff ff ff       	call   800079 <cli>
  8000b1:	83 ec 0c             	sub    $0xc,%esp
  8000b4:	8d 83 a0 63 ff ff    	lea    -0x9c60(%ebx),%eax
  8000ba:	50                   	push   %eax
  8000bb:	8d 83 14 64 ff ff    	lea    -0x9bec(%ebx),%eax
  8000c1:	50                   	push   %eax
  8000c2:	6a 08                	push   $0x8
  8000c4:	8d 83 b0 63 ff ff    	lea    -0x9c50(%ebx),%eax
  8000ca:	50                   	push   %eax
  8000cb:	8d 83 cc 63 ff ff    	lea    -0x9c34(%ebx),%eax
  8000d1:	50                   	push   %eax
  8000d2:	e8 99 22 03 00       	call   832370 <printf>
  8000d7:	83 c4 20             	add    $0x20,%esp
  8000da:	b8 01 00 00 00       	mov    $0x1,%eax
  8000df:	82 83 ec 08 6a 34 6a 	addb   $0x6a,0x346a08ec(%ebx)
  8000e6:	43                   	inc    %ebx
  8000e7:	e8 64 ff ff ff       	call   800050 <out_byte>
  8000ec:	83 c4 10             	add    $0x10,%esp
  8000ef:	8b 45 f4             	mov    -0xc(%ebp),%eax
  8000f2:	99                   	cltd   
  8000f3:	c1 ea 18             	shr    $0x18,%edx
  8000f6:	01 d0                	add    %edx,%eax
  8000f8:	0f b6 c0             	movzbl %al,%eax
  8000fb:	29 d0                	sub    %edx,%eax
  8000fd:	0f be c0             	movsbl %al,%eax
  800100:	83 ec 08             	sub    $0x8,%esp
  800103:	50                   	push   %eax
  800104:	6a 40                	push   $0x40
  800106:	e8 45 ff ff ff       	call   800050 <out_byte>
  80010b:	83 c4 10             	add    $0x10,%esp
  80010e:	8b 45 f4             	mov    -0xc(%ebp),%eax
  800111:	8d 90 ff 00 00 00    	lea    0xff(%eax),%edx
  800117:	85 c0                	test   %eax,%eax
  800119:	0f 48 c2             	cmovs  %edx,%eax
  80011c:	c1 f8 08             	sar    $0x8,%eax
  80011f:	0f be c0             	movsbl %al,%eax
  800122:	83 ec 08             	sub    $0x8,%esp
  800125:	50                   	push   %eax
  800126:	6a 40                	push   $0x40
  800128:	e8 23 ff ff ff       	call   800050 <out_byte>
  80012d:	83 c4 10             	add    $0x10,%esp
  800130:	90                   	nop
  800131:	8b 5d fc             	mov    -0x4(%ebp),%ebx
  800134:	c9                   	leave  
  800135:	c3                   	ret    

00800136 <__x86.get_pc_thunk.ax>:
  800136:	8b 04 24             	mov    (%esp),%eax
  800139:	c3                   	ret    

0080013a <__x86.get_pc_thunk.bx>:
  80013a:	8b 1c 24             	mov    (%esp),%ebx
  80013d:	c3                   	ret    

0080013e <in_byte>:
  80013e:	55                   	push   %ebp
  80013f:	89 e5                	mov    %esp,%ebp
  800141:	83 ec 14             	sub    $0x14,%esp
  800144:	e8 ed ff ff ff       	call   800136 <__x86.get_pc_thunk.ax>
  800149:	05 b7 ae 04 00       	add    $0x4aeb7,%eax
  80014e:	8b 45 08             	mov    0x8(%ebp),%eax
  800151:	66 89 45 ec          	mov    %ax,-0x14(%ebp)
  800155:	0f b7 45 ec          	movzwl -0x14(%ebp),%eax
  800159:	89 c2                	mov    %eax,%edx
  80015b:	ec                   	in     (%dx),%al
  80015c:	88 45 ff             	mov    %al,-0x1(%ebp)
  80015f:	0f b6 45 ff          	movzbl -0x1(%ebp),%eax
  800163:	c9                   	leave  
  800164:	c3                   	ret    

00800165 <out_byte>:
  800165:	55                   	push   %ebp
  800166:	89 e5                	mov    %esp,%ebp
  800168:	83 ec 08             	sub    $0x8,%esp
  80016b:	e8 c6 ff ff ff       	call   800136 <__x86.get_pc_thunk.ax>
  800170:	05 90 ae 04 00       	add    $0x4ae90,%eax
  800175:	8b 55 08             	mov    0x8(%ebp),%edx
  800178:	8b 45 0c             	mov    0xc(%ebp),%eax
  80017b:	66 89 55 fc          	mov    %dx,-0x4(%ebp)
  80017f:	88 45 f8             	mov    %al,-0x8(%ebp)
  800182:	0f b6 45 f8          	movzbl -0x8(%ebp),%eax
  800186:	0f b7 55 fc          	movzwl -0x4(%ebp),%edx
  80018a:	ee                   	out    %al,(%dx)
  80018b:	90                   	nop
  80018c:	c9                   	leave  
  80018d:	c3                   	ret    

0080018e <write_palette>:
  80018e:	55                   	push   %ebp
  80018f:	89 e5                	mov    %esp,%ebp
  800191:	83 ec 10             	sub    $0x10,%esp
  800194:	e8 9d ff ff ff       	call   800136 <__x86.get_pc_thunk.ax>
  800199:	05 67 ae 04 00       	add    $0x4ae67,%eax
  80019e:	8b 45 08             	mov    0x8(%ebp),%eax
  8001a1:	89 45 f8             	mov    %eax,-0x8(%ebp)
  8001a4:	6a 00                	push   $0x0
  8001a6:	68 c8 03 00 00       	push   $0x3c8
  8001ab:	e8 b5 ff ff ff       	call   800165 <out_byte>
  8001b0:	83 c4 08             	add    $0x8,%esp
  8001b3:	c7 45 fc 00 00 00 00 	movl   $0x0,-0x4(%ebp)
  8001ba:	eb 78                	jmp    800234 <write_palette+0xa6>
  8001bc:	8b 45 fc             	mov    -0x4(%ebp),%eax
  8001bf:	8d 14 85 00 00 00 00 	lea    0x0(,%eax,4),%edx
  8001c6:	8b 45 f8             	mov    -0x8(%ebp),%eax
  8001c9:	01 d0                	add    %edx,%eax
  8001cb:	0f b6 00             	movzbl (%eax),%eax
  8001ce:	c0 e8 02             	shr    $0x2,%al
  8001d1:	0f be c0             	movsbl %al,%eax
  8001d4:	50                   	push   %eax
  8001d5:	68 c9 03 00 00       	push   $0x3c9
  8001da:	e8 86 ff ff ff       	call   800165 <out_byte>
  8001df:	83 c4 08             	add    $0x8,%esp
  8001e2:	8b 45 fc             	mov    -0x4(%ebp),%eax
  8001e5:	8d 14 85 00 00 00 00 	lea    0x0(,%eax,4),%edx
  8001ec:	8b 45 f8             	mov    -0x8(%ebp),%eax
  8001ef:	01 d0                	add    %edx,%eax
  8001f1:	0f b6 40 01          	movzbl 0x1(%eax),%eax
  8001f5:	c0 e8 02             	shr    $0x2,%al
  8001f8:	0f be c0             	movsbl %al,%eax
  8001fb:	50                   	push   %eax
  8001fc:	68 c9 03 00 00       	push   $0x3c9
  800201:	e8 5f ff ff ff       	call   800165 <out_byte>
  800206:	83 c4 08             	add    $0x8,%esp
  800209:	8b 45 fc             	mov    -0x4(%ebp),%eax
  80020c:	8d 14 85 00 00 00 00 	lea    0x0(,%eax,4),%edx
  800213:	8b 45 f8             	mov    -0x8(%ebp),%eax
  800216:	01 d0                	add    %edx,%eax
  800218:	0f b6 40 02          	movzbl 0x2(%eax),%eax
  80021c:	c0 e8 02             	shr    $0x2,%al
  80021f:	0f be c0             	movsbl %al,%eax
  800222:	50                   	push   %eax
  800223:	68 c9 03 00 00       	push   $0x3c9
  800228:	e8 38 ff ff ff       	call   800165 <out_byte>
  80022d:	83 c4 08             	add    $0x8,%esp
  800230:	83 45 fc 01          	addl   $0x1,-0x4(%ebp)
  800234:	8b 45 fc             	mov    -0x4(%ebp),%eax
  800237:	3b 45 0c             	cmp    0xc(%ebp),%eax
  80023a:	7c 80                	jl     8001bc <write_palette+0x2e>
  80023c:	90                   	nop
  80023d:	c9                   	leave  
  80023e:	c3                   	ret    

0080023f <read_palette>:
  80023f:	55                   	push   %ebp
  800240:	89 e5                	mov    %esp,%ebp
  800242:	53                   	push   %ebx
  800243:	83 ec 14             	sub    $0x14,%esp
  800246:	e8 ef fe ff ff       	call   80013a <__x86.get_pc_thunk.bx>
  80024b:	81 c3 b5 ad 04 00    	add    $0x4adb5,%ebx
  800251:	6a 00                	push   $0x0
  800253:	68 c7 03 00 00       	push   $0x3c7
  800258:	e8 08 ff ff ff       	call   800165 <out_byte>
  80025d:	83 c4 08             	add    $0x8,%esp
  800260:	c7 45 f4 00 00 00 00 	movl   $0x0,-0xc(%ebp)
  800267:	eb 52                	jmp    8002bb <read_palette+0x7c>
  800269:	68 c9 03 00 00       	push   $0x3c9
  80026e:	e8 cb fe ff ff       	call   80013e <in_byte>
  800273:	83 c4 04             	add    $0x4,%esp
  800276:	88 45 f3             	mov    %al,-0xd(%ebp)
  800279:	68 c9 03 00 00       	push   $0x3c9
  80027e:	e8 bb fe ff ff       	call   80013e <in_byte>
  800283:	83 c4 04             	add    $0x4,%esp
  800286:	88 45 f2             	mov    %al,-0xe(%ebp)
  800289:	68 c9 03 00 00       	push   $0x3c9
  80028e:	e8 ab fe ff ff       	call   80013e <in_byte>
  800293:	83 c4 04             	add    $0x4,%esp
  800296:	88 45 f1             	mov    %al,-0xf(%ebp)
  800299:	0f b6 4d f1          	movzbl -0xf(%ebp),%ecx
  80029d:	0f b6 55 f2          	movzbl -0xe(%ebp),%edx
  8002a1:	0f b6 45 f3          	movzbl -0xd(%ebp),%eax
  8002a5:	51                   	push   %ecx
  8002a6:	52                   	push   %edx
  8002a7:	50                   	push   %eax
  8002a8:	8d 83 1f 64 ff ff    	lea    -0x9be1(%ebx),%eax
  8002ae:	50                   	push   %eax
  8002af:	e8 bc 20 03 00       	call   832370 <printf>
  8002b4:	83 c4 10             	add    $0x10,%esp
  8002b7:	83 45 f4 01          	addl   $0x1,-0xc(%ebp)
  8002bb:	81 7d f4 ff 00 00 00 	cmpl   $0xff,-0xc(%ebp)
  8002c2:	7e a5                	jle    800269 <read_palette+0x2a>
  8002c4:	90                   	nop
  8002c5:	8b 5d fc             	mov    -0x4(%ebp),%ebx
  8002c8:	c9                   	leave  
  8002c9:	c3                   	ret    

008002ca <cli>:
  8002ca:	55                   	push   %ebp
  8002cb:	89 e5                	mov    %esp,%ebp
  8002cd:	e8 64 fe ff ff       	call   800136 <__x86.get_pc_thunk.ax>
  8002d2:	05 2e ad 04 00       	add    $0x4ad2e,%eax
  8002d7:	fa                   	cli    
  8002d8:	90                   	nop
  8002d9:	5d                   	pop    %ebp
  8002da:	c3                   	ret    

008002db <draw_pixel>:
  8002db:	55                   	push   %ebp
  8002dc:	89 e5                	mov    %esp,%ebp
  8002de:	53                   	push   %ebx
  8002df:	83 ec 04             	sub    $0x4,%esp
  8002e2:	e8 53 fe ff ff       	call   80013a <__x86.get_pc_thunk.bx>
  8002e7:	81 c3 19 ad 04 00    	add    $0x4ad19,%ebx
  8002ed:	83 7d 08 00          	cmpl   $0x0,0x8(%ebp)
  8002f1:	78 18                	js     80030b <draw_pixel+0x30>
  8002f3:	83 7d 0c 00          	cmpl   $0x0,0xc(%ebp)
  8002f7:	78 12                	js     80030b <draw_pixel+0x30>
  8002f9:	81 7d 08 c7 00 00 00 	cmpl   $0xc7,0x8(%ebp)
  800300:	7f 09                	jg     80030b <draw_pixel+0x30>
  800302:	81 7d 0c 3f 01 00 00 	cmpl   $0x13f,0xc(%ebp)
  800309:	7e 34                	jle    80033f <draw_pixel+0x64>
  80030b:	e8 ba ff ff ff       	call   8002ca <cli>
  800310:	83 ec 0c             	sub    $0xc,%esp
  800313:	8d 83 38 64 ff ff    	lea    -0x9bc8(%ebx),%eax
  800319:	50                   	push   %eax
  80031a:	8d 83 0c 65 ff ff    	lea    -0x9af4(%ebx),%eax
  800320:	50                   	push   %eax
  800321:	6a 0f                	push   $0xf
  800323:	8d 83 6c 64 ff ff    	lea    -0x9b94(%ebx),%eax
  800329:	50                   	push   %eax
  80032a:	8d 83 88 64 ff ff    	lea    -0x9b78(%ebx),%eax
  800330:	50                   	push   %eax
  800331:	e8 3a 20 03 00       	call   832370 <printf>
  800336:	83 c4 20             	add    $0x20,%esp
  800339:	b8 01 00 00 00       	mov    $0x1,%eax
  80033e:	82 8b 83 20 04 00 00 	orb    $0x0,0x42083(%ebx)
  800345:	8b 55 08             	mov    0x8(%ebp),%edx
  800348:	89 d1                	mov    %edx,%ecx
  80034a:	c1 e1 08             	shl    $0x8,%ecx
  80034d:	8b 55 08             	mov    0x8(%ebp),%edx
  800350:	c1 e2 06             	shl    $0x6,%edx
  800353:	01 d1                	add    %edx,%ecx
  800355:	8b 55 0c             	mov    0xc(%ebp),%edx
  800358:	01 ca                	add    %ecx,%edx
  80035a:	01 d0                	add    %edx,%eax
  80035c:	8b 55 10             	mov    0x10(%ebp),%edx
  80035f:	88 10                	mov    %dl,(%eax)
  800361:	90                   	nop
  800362:	8b 5d fc             	mov    -0x4(%ebp),%ebx
  800365:	c9                   	leave  
  800366:	c3                   	ret    

00800367 <prepare_buffer>:
  800367:	55                   	push   %ebp
  800368:	89 e5                	mov    %esp,%ebp
  80036a:	53                   	push   %ebx
  80036b:	83 ec 04             	sub    $0x4,%esp
  80036e:	e8 c3 fd ff ff       	call   800136 <__x86.get_pc_thunk.ax>
  800373:	05 8d ac 04 00       	add    $0x4ac8d,%eax
  800378:	8b 90 20 04 00 00    	mov    0x420(%eax),%edx
  80037e:	83 ec 04             	sub    $0x4,%esp
  800381:	68 00 fa 00 00       	push   $0xfa00
  800386:	6a 00                	push   $0x0
  800388:	52                   	push   %edx
  800389:	89 c3                	mov    %eax,%ebx
  80038b:	e8 ad 1e 03 00       	call   83223d <memset>
  800390:	83 c4 10             	add    $0x10,%esp
  800393:	90                   	nop
  800394:	8b 5d fc             	mov    -0x4(%ebp),%ebx
  800397:	c9                   	leave  
  800398:	c3                   	ret    

00800399 <display_buffer>:
  800399:	55                   	push   %ebp
  80039a:	89 e5                	mov    %esp,%ebp
  80039c:	57                   	push   %edi
  80039d:	56                   	push   %esi
  80039e:	53                   	push   %ebx
  80039f:	e8 92 fd ff ff       	call   800136 <__x86.get_pc_thunk.ax>
  8003a4:	05 5c ac 04 00       	add    $0x4ac5c,%eax
  8003a9:	8b 80 20 04 00 00    	mov    0x420(%eax),%eax
  8003af:	ba 80 3e 00 00       	mov    $0x3e80,%edx
  8003b4:	bb 00 00 0a 00       	mov    $0xa0000,%ebx
  8003b9:	89 d1                	mov    %edx,%ecx
  8003bb:	89 c6                	mov    %eax,%esi
  8003bd:	89 df                	mov    %ebx,%edi
  8003bf:	fc                   	cld    
  8003c0:	f3 a5                	rep movsl %ds:(%esi),%es:(%edi)
  8003c2:	90                   	nop
  8003c3:	5b                   	pop    %ebx
  8003c4:	5e                   	pop    %esi
  8003c5:	5f                   	pop    %edi
  8003c6:	5d                   	pop    %ebp
  8003c7:	c3                   	ret    

008003c8 <draw_character>:
  8003c8:	55                   	push   %ebp
  8003c9:	89 e5                	mov    %esp,%ebp
  8003cb:	53                   	push   %ebx
  8003cc:	83 ec 24             	sub    $0x24,%esp
  8003cf:	e8 66 fd ff ff       	call   80013a <__x86.get_pc_thunk.bx>
  8003d4:	81 c3 2c ac 04 00    	add    $0x4ac2c,%ebx
  8003da:	8b 45 08             	mov    0x8(%ebp),%eax
  8003dd:	88 45 e4             	mov    %al,-0x1c(%ebp)
  8003e0:	80 7d e4 00          	cmpb   $0x0,-0x1c(%ebp)
  8003e4:	79 34                	jns    80041a <draw_character+0x52>
  8003e6:	e8 df fe ff ff       	call   8002ca <cli>
  8003eb:	83 ec 0c             	sub    $0xc,%esp
  8003ee:	8d 83 d0 64 ff ff    	lea    -0x9b30(%ebx),%eax
  8003f4:	50                   	push   %eax
  8003f5:	8d 83 fc 64 ff ff    	lea    -0x9b04(%ebx),%eax
  8003fb:	50                   	push   %eax
  8003fc:	6a 18                	push   $0x18
  8003fe:	8d 83 e1 64 ff ff    	lea    -0x9b1f(%ebx),%eax
  800404:	50                   	push   %eax
  800405:	8d 83 88 64 ff ff    	lea    -0x9b78(%ebx),%eax
  80040b:	50                   	push   %eax
  80040c:	e8 5f 1f 03 00       	call   832370 <printf>
  800411:	83 c4 20             	add    $0x20,%esp
  800414:	b8 01 00 00 00       	mov    $0x1,%eax
  800419:	82 0f be             	orb    $0xbe,(%edi)
  80041c:	45                   	inc    %ebp
  80041d:	e4 8d                	in     $0x8d,%al
  80041f:	14 c5                	adc    $0xc5,%al
  800421:	00 00                	add    %al,(%eax)
  800423:	00 00                	add    %al,(%eax)
  800425:	c7 c0 20 b0 84 00    	mov    $0x84b020,%eax
  80042b:	01 d0                	add    %edx,%eax
  80042d:	89 45 ec             	mov    %eax,-0x14(%ebp)
  800430:	c7 45 f4 00 00 00 00 	movl   $0x0,-0xc(%ebp)
  800437:	eb 55                	jmp    80048e <draw_character+0xc6>
  800439:	c7 45 f0 00 00 00 00 	movl   $0x0,-0x10(%ebp)
  800440:	eb 42                	jmp    800484 <draw_character+0xbc>
  800442:	8b 55 f4             	mov    -0xc(%ebp),%edx
  800445:	8b 45 ec             	mov    -0x14(%ebp),%eax
  800448:	01 d0                	add    %edx,%eax
  80044a:	0f b6 00             	movzbl (%eax),%eax
  80044d:	0f be d0             	movsbl %al,%edx
  800450:	8b 45 f0             	mov    -0x10(%ebp),%eax
  800453:	89 c1                	mov    %eax,%ecx
  800455:	d3 fa                	sar    %cl,%edx
  800457:	89 d0                	mov    %edx,%eax
  800459:	83 e0 01             	and    $0x1,%eax
  80045c:	85 c0                	test   %eax,%eax
  80045e:	74 20                	je     800480 <draw_character+0xb8>
  800460:	8b 55 10             	mov    0x10(%ebp),%edx
  800463:	8b 45 f0             	mov    -0x10(%ebp),%eax
  800466:	01 c2                	add    %eax,%edx
  800468:	8b 4d 0c             	mov    0xc(%ebp),%ecx
  80046b:	8b 45 f4             	mov    -0xc(%ebp),%eax
  80046e:	01 c8                	add    %ecx,%eax
  800470:	83 ec 04             	sub    $0x4,%esp
  800473:	ff 75 14             	pushl  0x14(%ebp)
  800476:	52                   	push   %edx
  800477:	50                   	push   %eax
  800478:	e8 5e fe ff ff       	call   8002db <draw_pixel>
  80047d:	83 c4 10             	add    $0x10,%esp
  800480:	83 45 f0 01          	addl   $0x1,-0x10(%ebp)
  800484:	83 7d f0 07          	cmpl   $0x7,-0x10(%ebp)
  800488:	7e b8                	jle    800442 <draw_character+0x7a>
  80048a:	83 45 f4 01          	addl   $0x1,-0xc(%ebp)
  80048e:	83 7d f4 07          	cmpl   $0x7,-0xc(%ebp)
  800492:	7e a5                	jle    800439 <draw_character+0x71>
  800494:	90                   	nop
  800495:	8b 5d fc             	mov    -0x4(%ebp),%ebx
  800498:	c9                   	leave  
  800499:	c3                   	ret    

0080049a <draw_string>:
  80049a:	55                   	push   %ebp
  80049b:	89 e5                	mov    %esp,%ebp
  80049d:	83 ec 08             	sub    $0x8,%esp
  8004a0:	e8 91 fc ff ff       	call   800136 <__x86.get_pc_thunk.ax>
  8004a5:	05 5b ab 04 00       	add    $0x4ab5b,%eax
  8004aa:	eb 3f                	jmp    8004eb <draw_string+0x51>
  8004ac:	8b 45 08             	mov    0x8(%ebp),%eax
  8004af:	8d 50 01             	lea    0x1(%eax),%edx
  8004b2:	89 55 08             	mov    %edx,0x8(%ebp)
  8004b5:	0f b6 00             	movzbl (%eax),%eax
  8004b8:	0f be c0             	movsbl %al,%eax
  8004bb:	ff 75 14             	pushl  0x14(%ebp)
  8004be:	ff 75 10             	pushl  0x10(%ebp)
  8004c1:	ff 75 0c             	pushl  0xc(%ebp)
  8004c4:	50                   	push   %eax
  8004c5:	e8 fe fe ff ff       	call   8003c8 <draw_character>
  8004ca:	83 c4 10             	add    $0x10,%esp
  8004cd:	8b 45 10             	mov    0x10(%ebp),%eax
  8004d0:	83 c0 08             	add    $0x8,%eax
  8004d3:	3d 3f 01 00 00       	cmp    $0x13f,%eax
  8004d8:	7e 0d                	jle    8004e7 <draw_string+0x4d>
  8004da:	83 45 0c 08          	addl   $0x8,0xc(%ebp)
  8004de:	c7 45 10 00 00 00 00 	movl   $0x0,0x10(%ebp)
  8004e5:	eb 04                	jmp    8004eb <draw_string+0x51>
  8004e7:	83 45 10 08          	addl   $0x8,0x10(%ebp)
  8004eb:	8b 45 08             	mov    0x8(%ebp),%eax
  8004ee:	0f b6 00             	movzbl (%eax),%eax
  8004f1:	84 c0                	test   %al,%al
  8004f3:	75 b7                	jne    8004ac <draw_string+0x12>
  8004f5:	90                   	nop
  8004f6:	c9                   	leave  
  8004f7:	c3                   	ret    

008004f8 <syscall>:
  8004f8:	55                   	push   %ebp
  8004f9:	89 e5                	mov    %esp,%ebp
  8004fb:	53                   	push   %ebx
  8004fc:	83 ec 10             	sub    $0x10,%esp
  8004ff:	e8 32 fc ff ff       	call   800136 <__x86.get_pc_thunk.ax>
  800504:	05 fc aa 04 00       	add    $0x4aafc,%eax
  800509:	8d 45 08             	lea    0x8(%ebp),%eax
  80050c:	89 45 f8             	mov    %eax,-0x8(%ebp)
  80050f:	8b 45 f8             	mov    -0x8(%ebp),%eax
  800512:	8b 00                	mov    (%eax),%eax
  800514:	8b 55 f8             	mov    -0x8(%ebp),%edx
  800517:	83 c2 04             	add    $0x4,%edx
  80051a:	8b 1a                	mov    (%edx),%ebx
  80051c:	8b 55 f8             	mov    -0x8(%ebp),%edx
  80051f:	83 c2 08             	add    $0x8,%edx
  800522:	8b 0a                	mov    (%edx),%ecx
  800524:	8b 55 f8             	mov    -0x8(%ebp),%edx
  800527:	83 c2 0c             	add    $0xc,%edx
  80052a:	8b 12                	mov    (%edx),%edx
  80052c:	cd 80                	int    $0x80
  80052e:	89 45 f4             	mov    %eax,-0xc(%ebp)
  800531:	8b 45 f4             	mov    -0xc(%ebp),%eax
  800534:	83 c4 10             	add    $0x10,%esp
  800537:	5b                   	pop    %ebx
  800538:	5d                   	pop    %ebp
  800539:	c3                   	ret    

0080053a <_exit>:
  80053a:	55                   	push   %ebp
  80053b:	89 e5                	mov    %esp,%ebp
  80053d:	53                   	push   %ebx
  80053e:	83 ec 04             	sub    $0x4,%esp
  800541:	e8 f0 fb ff ff       	call   800136 <__x86.get_pc_thunk.ax>
  800546:	05 ba aa 04 00       	add    $0x4aaba,%eax
  80054b:	8d 90 5c 65 ff ff    	lea    -0x9aa4(%eax),%edx
  800551:	52                   	push   %edx
  800552:	6a 0e                	push   $0xe
  800554:	8d 90 18 65 ff ff    	lea    -0x9ae8(%eax),%edx
  80055a:	52                   	push   %edx
  80055b:	8d 90 34 65 ff ff    	lea    -0x9acc(%eax),%edx
  800561:	52                   	push   %edx
  800562:	89 c3                	mov    %eax,%ebx
  800564:	e8 07 1e 03 00       	call   832370 <printf>
  800569:	83 c4 10             	add    $0x10,%esp
  80056c:	83 7d 08 00          	cmpl   $0x0,0x8(%ebp)
  800570:	74 06                	je     800578 <_exit+0x3e>
  800572:	b8 01 00 00 00       	mov    $0x1,%eax
  800577:	82 90 8b 5d fc c9 c3 	adcb   $0xc3,-0x3603a275(%eax)

0080057e <open>:
  80057e:	55                   	push   %ebp
  80057f:	89 e5                	mov    %esp,%ebp
  800581:	e8 b0 fb ff ff       	call   800136 <__x86.get_pc_thunk.ax>
  800586:	05 7a aa 04 00       	add    $0x4aa7a,%eax
  80058b:	ff 75 0c             	pushl  0xc(%ebp)
  80058e:	ff 75 08             	pushl  0x8(%ebp)
  800591:	6a 05                	push   $0x5
  800593:	e8 60 ff ff ff       	call   8004f8 <syscall>
  800598:	83 c4 0c             	add    $0xc,%esp
  80059b:	c9                   	leave  
  80059c:	c3                   	ret    

0080059d <read>:
  80059d:	55                   	push   %ebp
  80059e:	89 e5                	mov    %esp,%ebp
  8005a0:	e8 91 fb ff ff       	call   800136 <__x86.get_pc_thunk.ax>
  8005a5:	05 5b aa 04 00       	add    $0x4aa5b,%eax
  8005aa:	ff 75 10             	pushl  0x10(%ebp)
  8005ad:	ff 75 0c             	pushl  0xc(%ebp)
  8005b0:	ff 75 08             	pushl  0x8(%ebp)
  8005b3:	6a 03                	push   $0x3
  8005b5:	e8 3e ff ff ff       	call   8004f8 <syscall>
  8005ba:	83 c4 10             	add    $0x10,%esp
  8005bd:	c9                   	leave  
  8005be:	c3                   	ret    

008005bf <write>:
  8005bf:	55                   	push   %ebp
  8005c0:	89 e5                	mov    %esp,%ebp
  8005c2:	e8 6f fb ff ff       	call   800136 <__x86.get_pc_thunk.ax>
  8005c7:	05 39 aa 04 00       	add    $0x4aa39,%eax
  8005cc:	ff 75 10             	pushl  0x10(%ebp)
  8005cf:	ff 75 0c             	pushl  0xc(%ebp)
  8005d2:	ff 75 08             	pushl  0x8(%ebp)
  8005d5:	6a 04                	push   $0x4
  8005d7:	e8 1c ff ff ff       	call   8004f8 <syscall>
  8005dc:	83 c4 10             	add    $0x10,%esp
  8005df:	c9                   	leave  
  8005e0:	c3                   	ret    

008005e1 <lseek>:
  8005e1:	55                   	push   %ebp
  8005e2:	89 e5                	mov    %esp,%ebp
  8005e4:	e8 4d fb ff ff       	call   800136 <__x86.get_pc_thunk.ax>
  8005e9:	05 17 aa 04 00       	add    $0x4aa17,%eax
  8005ee:	ff 75 10             	pushl  0x10(%ebp)
  8005f1:	ff 75 0c             	pushl  0xc(%ebp)
  8005f4:	ff 75 08             	pushl  0x8(%ebp)
  8005f7:	6a 13                	push   $0x13
  8005f9:	e8 fa fe ff ff       	call   8004f8 <syscall>
  8005fe:	83 c4 10             	add    $0x10,%esp
  800601:	c9                   	leave  
  800602:	c3                   	ret    

00800603 <sbrk>:
  800603:	55                   	push   %ebp
  800604:	89 e5                	mov    %esp,%ebp
  800606:	53                   	push   %ebx
  800607:	83 ec 10             	sub    $0x10,%esp
  80060a:	e8 2b fb ff ff       	call   80013a <__x86.get_pc_thunk.bx>
  80060f:	81 c3 f1 a9 04 00    	add    $0x4a9f1,%ebx
  800615:	8b 83 a0 0f 01 00    	mov    0x10fa0(%ebx),%eax
  80061b:	85 c0                	test   %eax,%eax
  80061d:	75 0c                	jne    80062b <sbrk+0x28>
  80061f:	c7 c0 08 3a 86 00    	mov    $0x863a08,%eax
  800625:	89 83 a0 0f 01 00    	mov    %eax,0x10fa0(%ebx)
  80062b:	8b 93 a0 0f 01 00    	mov    0x10fa0(%ebx),%edx
  800631:	8b 45 08             	mov    0x8(%ebp),%eax
  800634:	01 d0                	add    %edx,%eax
  800636:	50                   	push   %eax
  800637:	6a 2d                	push   $0x2d
  800639:	e8 ba fe ff ff       	call   8004f8 <syscall>
  80063e:	83 c4 08             	add    $0x8,%esp
  800641:	85 c0                	test   %eax,%eax
  800643:	74 06                	je     80064b <sbrk+0x48>
  800645:	b8 01 00 00 00       	mov    $0x1,%eax
  80064a:	82 8b 83 a0 0f 01 00 	orb    $0x0,0x10fa083(%ebx)
  800651:	89 45 f8             	mov    %eax,-0x8(%ebp)
  800654:	8b 93 a0 0f 01 00    	mov    0x10fa0(%ebx),%edx
  80065a:	8b 45 08             	mov    0x8(%ebp),%eax
  80065d:	01 d0                	add    %edx,%eax
  80065f:	89 83 a0 0f 01 00    	mov    %eax,0x10fa0(%ebx)
  800665:	8b 45 f8             	mov    -0x8(%ebp),%eax
  800668:	8b 5d fc             	mov    -0x4(%ebp),%ebx
  80066b:	c9                   	leave  
  80066c:	c3                   	ret    

0080066d <close>:
  80066d:	55                   	push   %ebp
  80066e:	89 e5                	mov    %esp,%ebp
  800670:	e8 c1 fa ff ff       	call   800136 <__x86.get_pc_thunk.ax>
  800675:	05 8b a9 04 00       	add    $0x4a98b,%eax
  80067a:	ff 75 08             	pushl  0x8(%ebp)
  80067d:	6a 06                	push   $0x6
  80067f:	e8 74 fe ff ff       	call   8004f8 <syscall>
  800684:	83 c4 08             	add    $0x8,%esp
  800687:	c9                   	leave  
  800688:	c3                   	ret    

00800689 <fstat>:
  800689:	55                   	push   %ebp
  80068a:	89 e5                	mov    %esp,%ebp
  80068c:	e8 a5 fa ff ff       	call   800136 <__x86.get_pc_thunk.ax>
  800691:	05 6f a9 04 00       	add    $0x4a96f,%eax
  800696:	8b 45 0c             	mov    0xc(%ebp),%eax
  800699:	c7 40 04 00 20 00 00 	movl   $0x2000,0x4(%eax)
  8006a0:	b8 00 00 00 00       	mov    $0x0,%eax
  8006a5:	5d                   	pop    %ebp
  8006a6:	c3                   	ret    

008006a7 <isatty>:
  8006a7:	55                   	push   %ebp
  8006a8:	89 e5                	mov    %esp,%ebp
  8006aa:	e8 87 fa ff ff       	call   800136 <__x86.get_pc_thunk.ax>
  8006af:	05 51 a9 04 00       	add    $0x4a951,%eax
  8006b4:	b8 00 00 00 00       	mov    $0x0,%eax
  8006b9:	5d                   	pop    %ebp
  8006ba:	c3                   	ret    

008006bb <cli>:
  8006bb:	55                   	push   %ebp
  8006bc:	89 e5                	mov    %esp,%ebp
  8006be:	e8 73 fa ff ff       	call   800136 <__x86.get_pc_thunk.ax>
  8006c3:	05 3d a9 04 00       	add    $0x4a93d,%eax
  8006c8:	fa                   	cli    
  8006c9:	90                   	nop
  8006ca:	5d                   	pop    %ebp
  8006cb:	c3                   	ret    

008006cc <add_irq_handle>:
  8006cc:	55                   	push   %ebp
  8006cd:	89 e5                	mov    %esp,%ebp
  8006cf:	53                   	push   %ebx
  8006d0:	83 ec 04             	sub    $0x4,%esp
  8006d3:	e8 5e fa ff ff       	call   800136 <__x86.get_pc_thunk.ax>
  8006d8:	05 28 a9 04 00       	add    $0x4a928,%eax
  8006dd:	83 ec 04             	sub    $0x4,%esp
  8006e0:	ff 75 0c             	pushl  0xc(%ebp)
  8006e3:	ff 75 08             	pushl  0x8(%ebp)
  8006e6:	6a 00                	push   $0x0
  8006e8:	89 c3                	mov    %eax,%ebx
  8006ea:	e8 09 fe ff ff       	call   8004f8 <syscall>
  8006ef:	83 c4 10             	add    $0x10,%esp
  8006f2:	90                   	nop
  8006f3:	8b 5d fc             	mov    -0x4(%ebp),%ebx
  8006f6:	c9                   	leave  
  8006f7:	c3                   	ret    

008006f8 <game_init>:
  8006f8:	55                   	push   %ebp
  8006f9:	89 e5                	mov    %esp,%ebp
  8006fb:	53                   	push   %ebx
  8006fc:	83 ec 04             	sub    $0x4,%esp
  8006ff:	e8 36 fa ff ff       	call   80013a <__x86.get_pc_thunk.bx>
  800704:	81 c3 fc a8 04 00    	add    $0x4a8fc,%ebx
  80070a:	e8 7b f9 ff ff       	call   80008a <init_timer>
  80070f:	83 ec 08             	sub    $0x8,%esp
  800712:	c7 c0 c9 07 80 00    	mov    $0x8007c9,%eax
  800718:	50                   	push   %eax
  800719:	6a 00                	push   $0x0
  80071b:	e8 ac ff ff ff       	call   8006cc <add_irq_handle>
  800720:	83 c4 10             	add    $0x10,%esp
  800723:	83 ec 08             	sub    $0x8,%esp
  800726:	c7 c0 bd 08 80 00    	mov    $0x8008bd,%eax
  80072c:	50                   	push   %eax
  80072d:	6a 01                	push   $0x1
  80072f:	e8 98 ff ff ff       	call   8006cc <add_irq_handle>
  800734:	83 c4 10             	add    $0x10,%esp
  800737:	8d 83 ec 65 ff ff    	lea    -0x9a14(%ebx),%eax
  80073d:	50                   	push   %eax
  80073e:	6a 12                	push   $0x12
  800740:	8d 83 64 65 ff ff    	lea    -0x9a9c(%ebx),%eax
  800746:	50                   	push   %eax
  800747:	8d 83 78 65 ff ff    	lea    -0x9a88(%ebx),%eax
  80074d:	50                   	push   %eax
  80074e:	e8 1d 1c 03 00       	call   832370 <printf>
  800753:	83 c4 10             	add    $0x10,%esp
  800756:	e8 3e 4c 02 00       	call   825399 <main_loop>
  80075b:	e8 5b ff ff ff       	call   8006bb <cli>
  800760:	83 ec 0c             	sub    $0xc,%esp
  800763:	8d 83 a2 65 ff ff    	lea    -0x9a5e(%ebx),%eax
  800769:	50                   	push   %eax
  80076a:	8d 83 ec 65 ff ff    	lea    -0x9a14(%ebx),%eax
  800770:	50                   	push   %eax
  800771:	6a 16                	push   $0x16
  800773:	8d 83 64 65 ff ff    	lea    -0x9a9c(%ebx),%eax
  800779:	50                   	push   %eax
  80077a:	8d 83 a4 65 ff ff    	lea    -0x9a5c(%ebx),%eax
  800780:	50                   	push   %eax
  800781:	e8 ea 1b 03 00       	call   832370 <printf>
  800786:	83 c4 20             	add    $0x20,%esp
  800789:	b8 01 00 00 00       	mov    $0x1,%eax
  80078e:	82 90 8b 5d fc c9 c3 	adcb   $0xc3,-0x3603a275(%eax)

00800795 <incr_nr_draw>:
  800795:	55                   	push   %ebp
  800796:	89 e5                	mov    %esp,%ebp
  800798:	e8 99 f9 ff ff       	call   800136 <__x86.get_pc_thunk.ax>
  80079d:	05 63 a8 04 00       	add    $0x4a863,%eax
  8007a2:	8b 90 ac 0f 01 00    	mov    0x10fac(%eax),%edx
  8007a8:	83 c2 01             	add    $0x1,%edx
  8007ab:	89 90 ac 0f 01 00    	mov    %edx,0x10fac(%eax)
  8007b1:	90                   	nop
  8007b2:	5d                   	pop    %ebp
  8007b3:	c3                   	ret    

008007b4 <get_fps>:
  8007b4:	55                   	push   %ebp
  8007b5:	89 e5                	mov    %esp,%ebp
  8007b7:	e8 7a f9 ff ff       	call   800136 <__x86.get_pc_thunk.ax>
  8007bc:	05 44 a8 04 00       	add    $0x4a844,%eax
  8007c1:	8b 80 a8 0f 01 00    	mov    0x10fa8(%eax),%eax
  8007c7:	5d                   	pop    %ebp
  8007c8:	c3                   	ret    

008007c9 <timer_event>:
  8007c9:	55                   	push   %ebp
  8007ca:	89 e5                	mov    %esp,%ebp
  8007cc:	53                   	push   %ebx
  8007cd:	e8 9e 00 00 00       	call   800870 <__x86.get_pc_thunk.cx>
  8007d2:	81 c1 2e a8 04 00    	add    $0x4a82e,%ecx
  8007d8:	8b 81 a4 0f 01 00    	mov    0x10fa4(%ecx),%eax
  8007de:	83 c0 01             	add    $0x1,%eax
  8007e1:	89 81 a4 0f 01 00    	mov    %eax,0x10fa4(%ecx)
  8007e7:	8b 99 a4 0f 01 00    	mov    0x10fa4(%ecx),%ebx
  8007ed:	ba 1f 85 eb 51       	mov    $0x51eb851f,%edx
  8007f2:	89 d8                	mov    %ebx,%eax
  8007f4:	f7 e2                	mul    %edx
  8007f6:	89 d0                	mov    %edx,%eax
  8007f8:	c1 e8 04             	shr    $0x4,%eax
  8007fb:	6b c0 32             	imul   $0x32,%eax,%eax
  8007fe:	29 c3                	sub    %eax,%ebx
  800800:	89 d8                	mov    %ebx,%eax
  800802:	85 c0                	test   %eax,%eax
  800804:	75 1b                	jne    800821 <timer_event+0x58>
  800806:	8b 81 ac 0f 01 00    	mov    0x10fac(%ecx),%eax
  80080c:	01 c0                	add    %eax,%eax
  80080e:	83 c0 01             	add    $0x1,%eax
  800811:	89 81 a8 0f 01 00    	mov    %eax,0x10fa8(%ecx)
  800817:	c7 81 ac 0f 01 00 00 	movl   $0x0,0x10fac(%ecx)
  80081e:	00 00 00 
  800821:	90                   	nop
  800822:	5b                   	pop    %ebx
  800823:	5d                   	pop    %ebp
  800824:	c3                   	ret    

00800825 <SDL_GetTicks>:
  800825:	55                   	push   %ebp
  800826:	89 e5                	mov    %esp,%ebp
  800828:	e8 09 f9 ff ff       	call   800136 <__x86.get_pc_thunk.ax>
  80082d:	05 d3 a7 04 00       	add    $0x4a7d3,%eax
  800832:	8b 90 a4 0f 01 00    	mov    0x10fa4(%eax),%edx
  800838:	89 d0                	mov    %edx,%eax
  80083a:	c1 e0 02             	shl    $0x2,%eax
  80083d:	01 d0                	add    %edx,%eax
  80083f:	01 c0                	add    %eax,%eax
  800841:	5d                   	pop    %ebp
  800842:	c3                   	ret    

00800843 <SDL_Delay>:
  800843:	55                   	push   %ebp
  800844:	89 e5                	mov    %esp,%ebp
  800846:	83 ec 10             	sub    $0x10,%esp
  800849:	e8 e8 f8 ff ff       	call   800136 <__x86.get_pc_thunk.ax>
  80084e:	05 b2 a7 04 00       	add    $0x4a7b2,%eax
  800853:	e8 cd ff ff ff       	call   800825 <SDL_GetTicks>
  800858:	89 c2                	mov    %eax,%edx
  80085a:	8b 45 08             	mov    0x8(%ebp),%eax
  80085d:	01 d0                	add    %edx,%eax
  80085f:	89 45 fc             	mov    %eax,-0x4(%ebp)
  800862:	90                   	nop
  800863:	e8 bd ff ff ff       	call   800825 <SDL_GetTicks>
  800868:	3b 45 fc             	cmp    -0x4(%ebp),%eax
  80086b:	72 f6                	jb     800863 <SDL_Delay+0x20>
  80086d:	90                   	nop
  80086e:	c9                   	leave  
  80086f:	c3                   	ret    

00800870 <__x86.get_pc_thunk.cx>:
  800870:	8b 0c 24             	mov    (%esp),%ecx
  800873:	c3                   	ret    

00800874 <in_byte>:
  800874:	55                   	push   %ebp
  800875:	89 e5                	mov    %esp,%ebp
  800877:	83 ec 14             	sub    $0x14,%esp
  80087a:	e8 b7 f8 ff ff       	call   800136 <__x86.get_pc_thunk.ax>
  80087f:	05 81 a7 04 00       	add    $0x4a781,%eax
  800884:	8b 45 08             	mov    0x8(%ebp),%eax
  800887:	66 89 45 ec          	mov    %ax,-0x14(%ebp)
  80088b:	0f b7 45 ec          	movzwl -0x14(%ebp),%eax
  80088f:	89 c2                	mov    %eax,%edx
  800891:	ec                   	in     (%dx),%al
  800892:	88 45 ff             	mov    %al,-0x1(%ebp)
  800895:	0f b6 45 ff          	movzbl -0x1(%ebp),%eax
  800899:	c9                   	leave  
  80089a:	c3                   	ret    

0080089b <sti>:
  80089b:	55                   	push   %ebp
  80089c:	89 e5                	mov    %esp,%ebp
  80089e:	e8 93 f8 ff ff       	call   800136 <__x86.get_pc_thunk.ax>
  8008a3:	05 5d a7 04 00       	add    $0x4a75d,%eax
  8008a8:	fb                   	sti    
  8008a9:	90                   	nop
  8008aa:	5d                   	pop    %ebp
  8008ab:	c3                   	ret    

008008ac <cli>:
  8008ac:	55                   	push   %ebp
  8008ad:	89 e5                	mov    %esp,%ebp
  8008af:	e8 82 f8 ff ff       	call   800136 <__x86.get_pc_thunk.ax>
  8008b4:	05 4c a7 04 00       	add    $0x4a74c,%eax
  8008b9:	fa                   	cli    
  8008ba:	90                   	nop
  8008bb:	5d                   	pop    %ebp
  8008bc:	c3                   	ret    

008008bd <keyboard_event>:
  8008bd:	55                   	push   %ebp
  8008be:	89 e5                	mov    %esp,%ebp
  8008c0:	53                   	push   %ebx
  8008c1:	83 ec 10             	sub    $0x10,%esp
  8008c4:	e8 71 f8 ff ff       	call   80013a <__x86.get_pc_thunk.bx>
  8008c9:	81 c3 37 a7 04 00    	add    $0x4a737,%ebx
  8008cf:	6a 60                	push   $0x60
  8008d1:	e8 9e ff ff ff       	call   800874 <in_byte>
  8008d6:	83 c4 04             	add    $0x4,%esp
  8008d9:	0f b6 c0             	movzbl %al,%eax
  8008dc:	89 45 f4             	mov    %eax,-0xc(%ebp)
  8008df:	8b 45 f4             	mov    -0xc(%ebp),%eax
  8008e2:	83 e0 7f             	and    $0x7f,%eax
  8008e5:	89 45 f0             	mov    %eax,-0x10(%ebp)
  8008e8:	c7 45 f8 00 00 00 00 	movl   $0x0,-0x8(%ebp)
  8008ef:	eb 4b                	jmp    80093c <keyboard_event+0x7f>
  8008f1:	8b 45 f8             	mov    -0x8(%ebp),%eax
  8008f4:	8b 84 83 00 66 ff ff 	mov    -0x9a00(%ebx,%eax,4),%eax
  8008fb:	3b 45 f0             	cmp    -0x10(%ebp),%eax
  8008fe:	75 38                	jne    800938 <keyboard_event+0x7b>
  800900:	8b 45 f4             	mov    -0xc(%ebp),%eax
  800903:	25 80 00 00 00       	and    $0x80,%eax
  800908:	85 c0                	test   %eax,%eax
  80090a:	74 10                	je     80091c <keyboard_event+0x5f>
  80090c:	8b 45 f8             	mov    -0x8(%ebp),%eax
  80090f:	c7 84 83 c0 0f 01 00 	movl   $0x2,0x10fc0(%ebx,%eax,4)
  800916:	02 00 00 00 
  80091a:	eb 1c                	jmp    800938 <keyboard_event+0x7b>
  80091c:	8b 45 f8             	mov    -0x8(%ebp),%eax
  80091f:	8b 84 83 c0 0f 01 00 	mov    0x10fc0(%ebx,%eax,4),%eax
  800926:	85 c0                	test   %eax,%eax
  800928:	75 0e                	jne    800938 <keyboard_event+0x7b>
  80092a:	8b 45 f8             	mov    -0x8(%ebp),%eax
  80092d:	c7 84 83 c0 0f 01 00 	movl   $0x3,0x10fc0(%ebx,%eax,4)
  800934:	03 00 00 00 
  800938:	83 45 f8 01          	addl   $0x1,-0x8(%ebp)
  80093c:	83 7d f8 11          	cmpl   $0x11,-0x8(%ebp)
  800940:	7e af                	jle    8008f1 <keyboard_event+0x34>
  800942:	90                   	nop
  800943:	8b 5d fc             	mov    -0x4(%ebp),%ebx
  800946:	c9                   	leave  
  800947:	c3                   	ret    

00800948 <get_keycode>:
  800948:	55                   	push   %ebp
  800949:	89 e5                	mov    %esp,%ebp
  80094b:	53                   	push   %ebx
  80094c:	83 ec 04             	sub    $0x4,%esp
  80094f:	e8 e6 f7 ff ff       	call   80013a <__x86.get_pc_thunk.bx>
  800954:	81 c3 ac a6 04 00    	add    $0x4a6ac,%ebx
  80095a:	83 7d 08 00          	cmpl   $0x0,0x8(%ebp)
  80095e:	78 06                	js     800966 <get_keycode+0x1e>
  800960:	83 7d 08 11          	cmpl   $0x11,0x8(%ebp)
  800964:	7e 34                	jle    80099a <get_keycode+0x52>
  800966:	e8 41 ff ff ff       	call   8008ac <cli>
  80096b:	83 ec 0c             	sub    $0xc,%esp
  80096e:	8d 83 48 66 ff ff    	lea    -0x99b8(%ebx),%eax
  800974:	50                   	push   %eax
  800975:	8d 83 cc 66 ff ff    	lea    -0x9934(%ebx),%eax
  80097b:	50                   	push   %eax
  80097c:	6a 22                	push   $0x22
  80097e:	8d 83 66 66 ff ff    	lea    -0x999a(%ebx),%eax
  800984:	50                   	push   %eax
  800985:	8d 83 84 66 ff ff    	lea    -0x997c(%ebx),%eax
  80098b:	50                   	push   %eax
  80098c:	e8 df 19 03 00       	call   832370 <printf>
  800991:	83 c4 20             	add    $0x20,%esp
  800994:	b8 01 00 00 00       	mov    $0x1,%eax
  800999:	82 8b 45 08 8b 84 83 	orb    $0x83,-0x7b74f7bb(%ebx)
  8009a0:	00 66 ff             	add    %ah,-0x1(%esi)
  8009a3:	ff 8b 5d fc c9 c3    	decl   -0x3c3603a3(%ebx)

008009a9 <query_key>:
  8009a9:	55                   	push   %ebp
  8009aa:	89 e5                	mov    %esp,%ebp
  8009ac:	53                   	push   %ebx
  8009ad:	83 ec 04             	sub    $0x4,%esp
  8009b0:	e8 85 f7 ff ff       	call   80013a <__x86.get_pc_thunk.bx>
  8009b5:	81 c3 4b a6 04 00    	add    $0x4a64b,%ebx
  8009bb:	83 7d 08 00          	cmpl   $0x0,0x8(%ebp)
  8009bf:	78 06                	js     8009c7 <query_key+0x1e>
  8009c1:	83 7d 08 11          	cmpl   $0x11,0x8(%ebp)
  8009c5:	7e 34                	jle    8009fb <query_key+0x52>
  8009c7:	e8 e0 fe ff ff       	call   8008ac <cli>
  8009cc:	83 ec 0c             	sub    $0xc,%esp
  8009cf:	8d 83 48 66 ff ff    	lea    -0x99b8(%ebx),%eax
  8009d5:	50                   	push   %eax
  8009d6:	8d 83 d8 66 ff ff    	lea    -0x9928(%ebx),%eax
  8009dc:	50                   	push   %eax
  8009dd:	6a 28                	push   $0x28
  8009df:	8d 83 66 66 ff ff    	lea    -0x999a(%ebx),%eax
  8009e5:	50                   	push   %eax
  8009e6:	8d 83 84 66 ff ff    	lea    -0x997c(%ebx),%eax
  8009ec:	50                   	push   %eax
  8009ed:	e8 7e 19 03 00       	call   832370 <printf>
  8009f2:	83 c4 20             	add    $0x20,%esp
  8009f5:	b8 01 00 00 00       	mov    $0x1,%eax
  8009fa:	82 8b 45 08 8b 84 83 	orb    $0x83,-0x7b74f7bb(%ebx)
  800a01:	c0 0f 01             	rorb   $0x1,(%edi)
  800a04:	00 8b 5d fc c9 c3    	add    %cl,-0x3c3603a3(%ebx)

00800a0a <release_key>:
  800a0a:	55                   	push   %ebp
  800a0b:	89 e5                	mov    %esp,%ebp
  800a0d:	53                   	push   %ebx
  800a0e:	83 ec 04             	sub    $0x4,%esp
  800a11:	e8 24 f7 ff ff       	call   80013a <__x86.get_pc_thunk.bx>
  800a16:	81 c3 ea a5 04 00    	add    $0x4a5ea,%ebx
  800a1c:	83 7d 08 00          	cmpl   $0x0,0x8(%ebp)
  800a20:	78 06                	js     800a28 <release_key+0x1e>
  800a22:	83 7d 08 11          	cmpl   $0x11,0x8(%ebp)
  800a26:	7e 34                	jle    800a5c <release_key+0x52>
  800a28:	e8 7f fe ff ff       	call   8008ac <cli>
  800a2d:	83 ec 0c             	sub    $0xc,%esp
  800a30:	8d 83 48 66 ff ff    	lea    -0x99b8(%ebx),%eax
  800a36:	50                   	push   %eax
  800a37:	8d 83 e4 66 ff ff    	lea    -0x991c(%ebx),%eax
  800a3d:	50                   	push   %eax
  800a3e:	6a 2e                	push   $0x2e
  800a40:	8d 83 66 66 ff ff    	lea    -0x999a(%ebx),%eax
  800a46:	50                   	push   %eax
  800a47:	8d 83 84 66 ff ff    	lea    -0x997c(%ebx),%eax
  800a4d:	50                   	push   %eax
  800a4e:	e8 1d 19 03 00       	call   832370 <printf>
  800a53:	83 c4 20             	add    $0x20,%esp
  800a56:	b8 01 00 00 00       	mov    $0x1,%eax
  800a5b:	82 8b 45 08 c7 84 83 	orb    $0x83,-0x7b38f7bb(%ebx)
  800a62:	c0 0f 01             	rorb   $0x1,(%edi)
  800a65:	00 01                	add    %al,(%ecx)
  800a67:	00 00                	add    %al,(%eax)
  800a69:	00 90 8b 5d fc c9    	add    %dl,-0x3603a275(%eax)
  800a6f:	c3                   	ret    

00800a70 <clear_key>:
  800a70:	55                   	push   %ebp
  800a71:	89 e5                	mov    %esp,%ebp
  800a73:	53                   	push   %ebx
  800a74:	83 ec 04             	sub    $0x4,%esp
  800a77:	e8 be f6 ff ff       	call   80013a <__x86.get_pc_thunk.bx>
  800a7c:	81 c3 84 a5 04 00    	add    $0x4a584,%ebx
  800a82:	83 7d 08 00          	cmpl   $0x0,0x8(%ebp)
  800a86:	78 06                	js     800a8e <clear_key+0x1e>
  800a88:	83 7d 08 11          	cmpl   $0x11,0x8(%ebp)
  800a8c:	7e 34                	jle    800ac2 <clear_key+0x52>
  800a8e:	e8 19 fe ff ff       	call   8008ac <cli>
  800a93:	83 ec 0c             	sub    $0xc,%esp
  800a96:	8d 83 48 66 ff ff    	lea    -0x99b8(%ebx),%eax
  800a9c:	50                   	push   %eax
  800a9d:	8d 83 f0 66 ff ff    	lea    -0x9910(%ebx),%eax
  800aa3:	50                   	push   %eax
  800aa4:	6a 34                	push   $0x34
  800aa6:	8d 83 66 66 ff ff    	lea    -0x999a(%ebx),%eax
  800aac:	50                   	push   %eax
  800aad:	8d 83 84 66 ff ff    	lea    -0x997c(%ebx),%eax
  800ab3:	50                   	push   %eax
  800ab4:	e8 b7 18 03 00       	call   832370 <printf>
  800ab9:	83 c4 20             	add    $0x20,%esp
  800abc:	b8 01 00 00 00       	mov    $0x1,%eax
  800ac1:	82 8b 45 08 c7 84 83 	orb    $0x83,-0x7b38f7bb(%ebx)
  800ac8:	c0 0f 01             	rorb   $0x1,(%edi)
  800acb:	00 00                	add    %al,(%eax)
  800acd:	00 00                	add    %al,(%eax)
  800acf:	00 90 8b 5d fc c9    	add    %dl,-0x3603a275(%eax)
  800ad5:	c3                   	ret    

00800ad6 <process_keys>:
  800ad6:	55                   	push   %ebp
  800ad7:	89 e5                	mov    %esp,%ebp
  800ad9:	83 ec 18             	sub    $0x18,%esp
  800adc:	e8 55 f6 ff ff       	call   800136 <__x86.get_pc_thunk.ax>
  800ae1:	05 1f a5 04 00       	add    $0x4a51f,%eax
  800ae6:	e8 c1 fd ff ff       	call   8008ac <cli>
  800aeb:	c7 45 f4 00 00 00 00 	movl   $0x0,-0xc(%ebp)
  800af2:	e9 92 00 00 00       	jmp    800b89 <process_keys+0xb3>
  800af7:	83 ec 0c             	sub    $0xc,%esp
  800afa:	ff 75 f4             	pushl  -0xc(%ebp)
  800afd:	e8 a7 fe ff ff       	call   8009a9 <query_key>
  800b02:	83 c4 10             	add    $0x10,%esp
  800b05:	83 f8 03             	cmp    $0x3,%eax
  800b08:	75 34                	jne    800b3e <process_keys+0x68>
  800b0a:	83 ec 0c             	sub    $0xc,%esp
  800b0d:	ff 75 f4             	pushl  -0xc(%ebp)
  800b10:	e8 33 fe ff ff       	call   800948 <get_keycode>
  800b15:	83 c4 10             	add    $0x10,%esp
  800b18:	83 ec 0c             	sub    $0xc,%esp
  800b1b:	50                   	push   %eax
  800b1c:	8b 45 08             	mov    0x8(%ebp),%eax
  800b1f:	ff d0                	call   *%eax
  800b21:	83 c4 10             	add    $0x10,%esp
  800b24:	83 ec 0c             	sub    $0xc,%esp
  800b27:	ff 75 f4             	pushl  -0xc(%ebp)
  800b2a:	e8 db fe ff ff       	call   800a0a <release_key>
  800b2f:	83 c4 10             	add    $0x10,%esp
  800b32:	e8 64 fd ff ff       	call   80089b <sti>
  800b37:	b8 01 00 00 00       	mov    $0x1,%eax
  800b3c:	eb 5f                	jmp    800b9d <process_keys+0xc7>
  800b3e:	83 ec 0c             	sub    $0xc,%esp
  800b41:	ff 75 f4             	pushl  -0xc(%ebp)
  800b44:	e8 60 fe ff ff       	call   8009a9 <query_key>
  800b49:	83 c4 10             	add    $0x10,%esp
  800b4c:	83 f8 02             	cmp    $0x2,%eax
  800b4f:	75 34                	jne    800b85 <process_keys+0xaf>
  800b51:	83 ec 0c             	sub    $0xc,%esp
  800b54:	ff 75 f4             	pushl  -0xc(%ebp)
  800b57:	e8 ec fd ff ff       	call   800948 <get_keycode>
  800b5c:	83 c4 10             	add    $0x10,%esp
  800b5f:	83 ec 0c             	sub    $0xc,%esp
  800b62:	50                   	push   %eax
  800b63:	8b 45 0c             	mov    0xc(%ebp),%eax
  800b66:	ff d0                	call   *%eax
  800b68:	83 c4 10             	add    $0x10,%esp
  800b6b:	83 ec 0c             	sub    $0xc,%esp
  800b6e:	ff 75 f4             	pushl  -0xc(%ebp)
  800b71:	e8 fa fe ff ff       	call   800a70 <clear_key>
  800b76:	83 c4 10             	add    $0x10,%esp
  800b79:	e8 1d fd ff ff       	call   80089b <sti>
  800b7e:	b8 01 00 00 00       	mov    $0x1,%eax
  800b83:	eb 18                	jmp    800b9d <process_keys+0xc7>
  800b85:	83 45 f4 01          	addl   $0x1,-0xc(%ebp)
  800b89:	83 7d f4 11          	cmpl   $0x11,-0xc(%ebp)
  800b8d:	0f 8e 64 ff ff ff    	jle    800af7 <process_keys+0x21>
  800b93:	e8 03 fd ff ff       	call   80089b <sti>
  800b98:	b8 00 00 00 00       	mov    $0x0,%eax
  800b9d:	c9                   	leave  
  800b9e:	c3                   	ret    

00800b9f <cli>:
  800b9f:	55                   	push   %ebp
  800ba0:	89 e5                	mov    %esp,%ebp
  800ba2:	e8 8f f5 ff ff       	call   800136 <__x86.get_pc_thunk.ax>
  800ba7:	05 59 a4 04 00       	add    $0x4a459,%eax
  800bac:	fa                   	cli    
  800bad:	90                   	nop
  800bae:	5d                   	pop    %ebp
  800baf:	c3                   	ret    

00800bb0 <SDL_BlitSurface>:
  800bb0:	55                   	push   %ebp
  800bb1:	89 e5                	mov    %esp,%ebp
  800bb3:	57                   	push   %edi
  800bb4:	56                   	push   %esi
  800bb5:	53                   	push   %ebx
  800bb6:	83 ec 2c             	sub    $0x2c,%esp
  800bb9:	e8 7c f5 ff ff       	call   80013a <__x86.get_pc_thunk.bx>
  800bbe:	81 c3 42 a4 04 00    	add    $0x4a442,%ebx
  800bc4:	83 7d 10 00          	cmpl   $0x0,0x10(%ebp)
  800bc8:	74 06                	je     800bd0 <SDL_BlitSurface+0x20>
  800bca:	83 7d 08 00          	cmpl   $0x0,0x8(%ebp)
  800bce:	75 34                	jne    800c04 <SDL_BlitSurface+0x54>
  800bd0:	e8 ca ff ff ff       	call   800b9f <cli>
  800bd5:	83 ec 0c             	sub    $0xc,%esp
  800bd8:	8d 83 fc 66 ff ff    	lea    -0x9904(%ebx),%eax
  800bde:	50                   	push   %eax
  800bdf:	8d 83 24 68 ff ff    	lea    -0x97dc(%ebx),%eax
  800be5:	50                   	push   %eax
  800be6:	6a 0c                	push   $0xc
  800be8:	8d 83 07 67 ff ff    	lea    -0x98f9(%ebx),%eax
  800bee:	50                   	push   %eax
  800bef:	8d 83 20 67 ff ff    	lea    -0x98e0(%ebx),%eax
  800bf5:	50                   	push   %eax
  800bf6:	e8 75 17 03 00       	call   832370 <printf>
  800bfb:	83 c4 20             	add    $0x20,%esp
  800bfe:	b8 01 00 00 00       	mov    $0x1,%eax
  800c03:	82 83 7d 0c 00 74 09 	addb   $0x9,0x74000c7d(%ebx)
  800c0a:	8b 45 0c             	mov    0xc(%ebp),%eax
  800c0d:	0f b7 00             	movzwl (%eax),%eax
  800c10:	98                   	cwtl   
  800c11:	eb 05                	jmp    800c18 <SDL_BlitSurface+0x68>
  800c13:	b8 00 00 00 00       	mov    $0x0,%eax
  800c18:	89 45 e4             	mov    %eax,-0x1c(%ebp)
  800c1b:	83 7d 0c 00          	cmpl   $0x0,0xc(%ebp)
  800c1f:	74 0a                	je     800c2b <SDL_BlitSurface+0x7b>
  800c21:	8b 45 0c             	mov    0xc(%ebp),%eax
  800c24:	0f b7 40 02          	movzwl 0x2(%eax),%eax
  800c28:	98                   	cwtl   
  800c29:	eb 05                	jmp    800c30 <SDL_BlitSurface+0x80>
  800c2b:	b8 00 00 00 00       	mov    $0x0,%eax
  800c30:	89 45 d0             	mov    %eax,-0x30(%ebp)
  800c33:	83 7d 14 00          	cmpl   $0x0,0x14(%ebp)
  800c37:	74 09                	je     800c42 <SDL_BlitSurface+0x92>
  800c39:	8b 45 14             	mov    0x14(%ebp),%eax
  800c3c:	0f b7 00             	movzwl (%eax),%eax
  800c3f:	98                   	cwtl   
  800c40:	eb 05                	jmp    800c47 <SDL_BlitSurface+0x97>
  800c42:	b8 00 00 00 00       	mov    $0x0,%eax
  800c47:	89 45 e0             	mov    %eax,-0x20(%ebp)
  800c4a:	83 7d 14 00          	cmpl   $0x0,0x14(%ebp)
  800c4e:	74 0a                	je     800c5a <SDL_BlitSurface+0xaa>
  800c50:	8b 45 14             	mov    0x14(%ebp),%eax
  800c53:	0f b7 40 02          	movzwl 0x2(%eax),%eax
  800c57:	98                   	cwtl   
  800c58:	eb 05                	jmp    800c5f <SDL_BlitSurface+0xaf>
  800c5a:	b8 00 00 00 00       	mov    $0x0,%eax
  800c5f:	89 45 cc             	mov    %eax,-0x34(%ebp)
  800c62:	83 7d 0c 00          	cmpl   $0x0,0xc(%ebp)
  800c66:	75 08                	jne    800c70 <SDL_BlitSurface+0xc0>
  800c68:	8b 45 08             	mov    0x8(%ebp),%eax
  800c6b:	8b 40 08             	mov    0x8(%eax),%eax
  800c6e:	eb 0a                	jmp    800c7a <SDL_BlitSurface+0xca>
  800c70:	8b 45 0c             	mov    0xc(%ebp),%eax
  800c73:	0f b7 40 04          	movzwl 0x4(%eax),%eax
  800c77:	0f b7 c0             	movzwl %ax,%eax
  800c7a:	89 45 dc             	mov    %eax,-0x24(%ebp)
  800c7d:	83 7d 0c 00          	cmpl   $0x0,0xc(%ebp)
  800c81:	75 08                	jne    800c8b <SDL_BlitSurface+0xdb>
  800c83:	8b 45 08             	mov    0x8(%ebp),%eax
  800c86:	8b 40 0c             	mov    0xc(%eax),%eax
  800c89:	eb 0a                	jmp    800c95 <SDL_BlitSurface+0xe5>
  800c8b:	8b 45 0c             	mov    0xc(%ebp),%eax
  800c8e:	0f b7 40 06          	movzwl 0x6(%eax),%eax
  800c92:	0f b7 c0             	movzwl %ax,%eax
  800c95:	89 45 d8             	mov    %eax,-0x28(%ebp)
  800c98:	8b 45 10             	mov    0x10(%ebp),%eax
  800c9b:	8b 40 08             	mov    0x8(%eax),%eax
  800c9e:	2b 45 e0             	sub    -0x20(%ebp),%eax
  800ca1:	3b 45 dc             	cmp    -0x24(%ebp),%eax
  800ca4:	7d 0c                	jge    800cb2 <SDL_BlitSurface+0x102>
  800ca6:	8b 45 10             	mov    0x10(%ebp),%eax
  800ca9:	8b 40 08             	mov    0x8(%eax),%eax
  800cac:	2b 45 e0             	sub    -0x20(%ebp),%eax
  800caf:	89 45 dc             	mov    %eax,-0x24(%ebp)
  800cb2:	8b 45 10             	mov    0x10(%ebp),%eax
  800cb5:	8b 40 0c             	mov    0xc(%eax),%eax
  800cb8:	2b 45 cc             	sub    -0x34(%ebp),%eax
  800cbb:	3b 45 d8             	cmp    -0x28(%ebp),%eax
  800cbe:	7d 0c                	jge    800ccc <SDL_BlitSurface+0x11c>
  800cc0:	8b 45 10             	mov    0x10(%ebp),%eax
  800cc3:	8b 40 0c             	mov    0xc(%eax),%eax
  800cc6:	2b 45 cc             	sub    -0x34(%ebp),%eax
  800cc9:	89 45 d8             	mov    %eax,-0x28(%ebp)
  800ccc:	83 7d 14 00          	cmpl   $0x0,0x14(%ebp)
  800cd0:	74 18                	je     800cea <SDL_BlitSurface+0x13a>
  800cd2:	8b 45 dc             	mov    -0x24(%ebp),%eax
  800cd5:	89 c2                	mov    %eax,%edx
  800cd7:	8b 45 14             	mov    0x14(%ebp),%eax
  800cda:	66 89 50 04          	mov    %dx,0x4(%eax)
  800cde:	8b 45 d8             	mov    -0x28(%ebp),%eax
  800ce1:	89 c2                	mov    %eax,%edx
  800ce3:	8b 45 14             	mov    0x14(%ebp),%eax
  800ce6:	66 89 50 06          	mov    %dx,0x6(%eax)
  800cea:	c7 45 d4 00 00 00 00 	movl   $0x0,-0x2c(%ebp)
  800cf1:	eb 59                	jmp    800d4c <SDL_BlitSurface+0x19c>
  800cf3:	8b 45 dc             	mov    -0x24(%ebp),%eax
  800cf6:	8b 55 08             	mov    0x8(%ebp),%edx
  800cf9:	8b 4a 20             	mov    0x20(%edx),%ecx
  800cfc:	8b 55 08             	mov    0x8(%ebp),%edx
  800cff:	8b 52 08             	mov    0x8(%edx),%edx
  800d02:	0f af 55 d0          	imul   -0x30(%ebp),%edx
  800d06:	89 d6                	mov    %edx,%esi
  800d08:	8b 55 e4             	mov    -0x1c(%ebp),%edx
  800d0b:	01 f2                	add    %esi,%edx
  800d0d:	01 d1                	add    %edx,%ecx
  800d0f:	8b 55 10             	mov    0x10(%ebp),%edx
  800d12:	8b 72 20             	mov    0x20(%edx),%esi
  800d15:	8b 55 10             	mov    0x10(%ebp),%edx
  800d18:	8b 52 08             	mov    0x8(%edx),%edx
  800d1b:	0f af 55 cc          	imul   -0x34(%ebp),%edx
  800d1f:	89 d7                	mov    %edx,%edi
  800d21:	8b 55 e0             	mov    -0x20(%ebp),%edx
  800d24:	01 fa                	add    %edi,%edx
  800d26:	01 f2                	add    %esi,%edx
  800d28:	83 ec 04             	sub    $0x4,%esp
  800d2b:	50                   	push   %eax
  800d2c:	51                   	push   %ecx
  800d2d:	52                   	push   %edx
  800d2e:	e8 35 14 03 00       	call   832168 <memcpy>
  800d33:	83 c4 10             	add    $0x10,%esp
  800d36:	8b 45 10             	mov    0x10(%ebp),%eax
  800d39:	8b 40 08             	mov    0x8(%eax),%eax
  800d3c:	01 45 e0             	add    %eax,-0x20(%ebp)
  800d3f:	8b 45 08             	mov    0x8(%ebp),%eax
  800d42:	8b 40 08             	mov    0x8(%eax),%eax
  800d45:	01 45 e4             	add    %eax,-0x1c(%ebp)
  800d48:	83 45 d4 01          	addl   $0x1,-0x2c(%ebp)
  800d4c:	8b 45 d4             	mov    -0x2c(%ebp),%eax
  800d4f:	3b 45 d8             	cmp    -0x28(%ebp),%eax
  800d52:	7c 9f                	jl     800cf3 <SDL_BlitSurface+0x143>
  800d54:	90                   	nop
  800d55:	8d 65 f4             	lea    -0xc(%ebp),%esp
  800d58:	5b                   	pop    %ebx
  800d59:	5e                   	pop    %esi
  800d5a:	5f                   	pop    %edi
  800d5b:	5d                   	pop    %ebp
  800d5c:	c3                   	ret    

00800d5d <SDL_FillRect>:
  800d5d:	55                   	push   %ebp
  800d5e:	89 e5                	mov    %esp,%ebp
  800d60:	56                   	push   %esi
  800d61:	53                   	push   %ebx
  800d62:	83 ec 10             	sub    $0x10,%esp
  800d65:	e8 d0 f3 ff ff       	call   80013a <__x86.get_pc_thunk.bx>
  800d6a:	81 c3 96 a2 04 00    	add    $0x4a296,%ebx
  800d70:	83 7d 08 00          	cmpl   $0x0,0x8(%ebp)
  800d74:	75 34                	jne    800daa <SDL_FillRect+0x4d>
  800d76:	e8 24 fe ff ff       	call   800b9f <cli>
  800d7b:	83 ec 0c             	sub    $0xc,%esp
  800d7e:	8d 83 68 67 ff ff    	lea    -0x9898(%ebx),%eax
  800d84:	50                   	push   %eax
  800d85:	8d 83 34 68 ff ff    	lea    -0x97cc(%ebx),%eax
  800d8b:	50                   	push   %eax
  800d8c:	6a 2a                	push   $0x2a
  800d8e:	8d 83 07 67 ff ff    	lea    -0x98f9(%ebx),%eax
  800d94:	50                   	push   %eax
  800d95:	8d 83 20 67 ff ff    	lea    -0x98e0(%ebx),%eax
  800d9b:	50                   	push   %eax
  800d9c:	e8 cf 15 03 00       	call   832370 <printf>
  800da1:	83 c4 20             	add    $0x20,%esp
  800da4:	b8 01 00 00 00       	mov    $0x1,%eax
  800da9:	82 81 7d 10 ff 00 00 	addb   $0x0,0xff107d(%ecx)
  800db0:	00 76 34             	add    %dh,0x34(%esi)
  800db3:	e8 e7 fd ff ff       	call   800b9f <cli>
  800db8:	83 ec 0c             	sub    $0xc,%esp
  800dbb:	8d 83 6c 67 ff ff    	lea    -0x9894(%ebx),%eax
  800dc1:	50                   	push   %eax
  800dc2:	8d 83 34 68 ff ff    	lea    -0x97cc(%ebx),%eax
  800dc8:	50                   	push   %eax
  800dc9:	6a 2b                	push   $0x2b
  800dcb:	8d 83 07 67 ff ff    	lea    -0x98f9(%ebx),%eax
  800dd1:	50                   	push   %eax
  800dd2:	8d 83 20 67 ff ff    	lea    -0x98e0(%ebx),%eax
  800dd8:	50                   	push   %eax
  800dd9:	e8 92 15 03 00       	call   832370 <printf>
  800dde:	83 c4 20             	add    $0x20,%esp
  800de1:	b8 01 00 00 00       	mov    $0x1,%eax
  800de6:	82 83 7d 0c 00 74 0c 	addb   $0xc,0x74000c7d(%ebx)
  800ded:	8b 45 0c             	mov    0xc(%ebp),%eax
  800df0:	0f b7 40 04          	movzwl 0x4(%eax),%eax
  800df4:	0f b7 c0             	movzwl %ax,%eax
  800df7:	eb 06                	jmp    800dff <SDL_FillRect+0xa2>
  800df9:	8b 45 08             	mov    0x8(%ebp),%eax
  800dfc:	8b 40 08             	mov    0x8(%eax),%eax
  800dff:	89 45 ec             	mov    %eax,-0x14(%ebp)
  800e02:	83 7d 0c 00          	cmpl   $0x0,0xc(%ebp)
  800e06:	74 0c                	je     800e14 <SDL_FillRect+0xb7>
  800e08:	8b 45 0c             	mov    0xc(%ebp),%eax
  800e0b:	0f b7 40 06          	movzwl 0x6(%eax),%eax
  800e0f:	0f b7 c0             	movzwl %ax,%eax
  800e12:	eb 06                	jmp    800e1a <SDL_FillRect+0xbd>
  800e14:	8b 45 08             	mov    0x8(%ebp),%eax
  800e17:	8b 40 0c             	mov    0xc(%eax),%eax
  800e1a:	89 45 e8             	mov    %eax,-0x18(%ebp)
  800e1d:	8b 45 08             	mov    0x8(%ebp),%eax
  800e20:	8b 50 20             	mov    0x20(%eax),%edx
  800e23:	83 7d 0c 00          	cmpl   $0x0,0xc(%ebp)
  800e27:	74 20                	je     800e49 <SDL_FillRect+0xec>
  800e29:	8b 45 0c             	mov    0xc(%ebp),%eax
  800e2c:	0f b7 00             	movzwl (%eax),%eax
  800e2f:	0f bf c8             	movswl %ax,%ecx
  800e32:	8b 45 0c             	mov    0xc(%ebp),%eax
  800e35:	0f b7 40 02          	movzwl 0x2(%eax),%eax
  800e39:	0f bf f0             	movswl %ax,%esi
  800e3c:	8b 45 08             	mov    0x8(%ebp),%eax
  800e3f:	8b 40 08             	mov    0x8(%eax),%eax
  800e42:	0f af c6             	imul   %esi,%eax
  800e45:	01 c8                	add    %ecx,%eax
  800e47:	eb 05                	jmp    800e4e <SDL_FillRect+0xf1>
  800e49:	b8 00 00 00 00       	mov    $0x0,%eax
  800e4e:	01 d0                	add    %edx,%eax
  800e50:	89 45 f4             	mov    %eax,-0xc(%ebp)
  800e53:	c7 45 f0 00 00 00 00 	movl   $0x0,-0x10(%ebp)
  800e5a:	eb 23                	jmp    800e7f <SDL_FillRect+0x122>
  800e5c:	8b 55 ec             	mov    -0x14(%ebp),%edx
  800e5f:	8b 45 10             	mov    0x10(%ebp),%eax
  800e62:	83 ec 04             	sub    $0x4,%esp
  800e65:	52                   	push   %edx
  800e66:	50                   	push   %eax
  800e67:	ff 75 f4             	pushl  -0xc(%ebp)
  800e6a:	e8 ce 13 03 00       	call   83223d <memset>
  800e6f:	83 c4 10             	add    $0x10,%esp
  800e72:	8b 45 08             	mov    0x8(%ebp),%eax
  800e75:	8b 40 08             	mov    0x8(%eax),%eax
  800e78:	01 45 f4             	add    %eax,-0xc(%ebp)
  800e7b:	83 45 f0 01          	addl   $0x1,-0x10(%ebp)
  800e7f:	8b 45 f0             	mov    -0x10(%ebp),%eax
  800e82:	3b 45 e8             	cmp    -0x18(%ebp),%eax
  800e85:	7c d5                	jl     800e5c <SDL_FillRect+0xff>
  800e87:	90                   	nop
  800e88:	8d 65 f8             	lea    -0x8(%ebp),%esp
  800e8b:	5b                   	pop    %ebx
  800e8c:	5e                   	pop    %esi
  800e8d:	5d                   	pop    %ebp
  800e8e:	c3                   	ret    

00800e8f <SDL_SetPalette>:
  800e8f:	55                   	push   %ebp
  800e90:	89 e5                	mov    %esp,%ebp
  800e92:	56                   	push   %esi
  800e93:	53                   	push   %ebx
  800e94:	e8 a1 f2 ff ff       	call   80013a <__x86.get_pc_thunk.bx>
  800e99:	81 c3 67 a1 04 00    	add    $0x4a167,%ebx
  800e9f:	83 7d 08 00          	cmpl   $0x0,0x8(%ebp)
  800ea3:	75 34                	jne    800ed9 <SDL_SetPalette+0x4a>
  800ea5:	e8 f5 fc ff ff       	call   800b9f <cli>
  800eaa:	83 ec 0c             	sub    $0xc,%esp
  800ead:	8d 83 7a 67 ff ff    	lea    -0x9886(%ebx),%eax
  800eb3:	50                   	push   %eax
  800eb4:	8d 83 44 68 ff ff    	lea    -0x97bc(%ebx),%eax
  800eba:	50                   	push   %eax
  800ebb:	6a 3e                	push   $0x3e
  800ebd:	8d 83 07 67 ff ff    	lea    -0x98f9(%ebx),%eax
  800ec3:	50                   	push   %eax
  800ec4:	8d 83 20 67 ff ff    	lea    -0x98e0(%ebx),%eax
  800eca:	50                   	push   %eax
  800ecb:	e8 a0 14 03 00       	call   832370 <printf>
  800ed0:	83 c4 20             	add    $0x20,%esp
  800ed3:	b8 01 00 00 00       	mov    $0x1,%eax
  800ed8:	82 8b 45 08 8b 40 04 	orb    $0x4,0x408b0845(%ebx)
  800edf:	85 c0                	test   %eax,%eax
  800ee1:	75 34                	jne    800f17 <SDL_SetPalette+0x88>
  800ee3:	e8 b7 fc ff ff       	call   800b9f <cli>
  800ee8:	83 ec 0c             	sub    $0xc,%esp
  800eeb:	8d 83 7c 67 ff ff    	lea    -0x9884(%ebx),%eax
  800ef1:	50                   	push   %eax
  800ef2:	8d 83 44 68 ff ff    	lea    -0x97bc(%ebx),%eax
  800ef8:	50                   	push   %eax
  800ef9:	6a 3f                	push   $0x3f
  800efb:	8d 83 07 67 ff ff    	lea    -0x98f9(%ebx),%eax
  800f01:	50                   	push   %eax
  800f02:	8d 83 20 67 ff ff    	lea    -0x98e0(%ebx),%eax
  800f08:	50                   	push   %eax
  800f09:	e8 62 14 03 00       	call   832370 <printf>
  800f0e:	83 c4 20             	add    $0x20,%esp
  800f11:	b8 01 00 00 00       	mov    $0x1,%eax
  800f16:	82 8b 45 08 8b 40 04 	orb    $0x4,0x408b0845(%ebx)
  800f1d:	8b 00                	mov    (%eax),%eax
  800f1f:	85 c0                	test   %eax,%eax
  800f21:	75 34                	jne    800f57 <SDL_SetPalette+0xc8>
  800f23:	e8 77 fc ff ff       	call   800b9f <cli>
  800f28:	83 ec 0c             	sub    $0xc,%esp
  800f2b:	8d 83 86 67 ff ff    	lea    -0x987a(%ebx),%eax
  800f31:	50                   	push   %eax
  800f32:	8d 83 44 68 ff ff    	lea    -0x97bc(%ebx),%eax
  800f38:	50                   	push   %eax
  800f39:	6a 40                	push   $0x40
  800f3b:	8d 83 07 67 ff ff    	lea    -0x98f9(%ebx),%eax
  800f41:	50                   	push   %eax
  800f42:	8d 83 20 67 ff ff    	lea    -0x98e0(%ebx),%eax
  800f48:	50                   	push   %eax
  800f49:	e8 22 14 03 00       	call   832370 <printf>
  800f4e:	83 c4 20             	add    $0x20,%esp
  800f51:	b8 01 00 00 00       	mov    $0x1,%eax
  800f56:	82 83 7d 14 00 74 34 	addb   $0x34,0x7400147d(%ebx)
  800f5d:	e8 3d fc ff ff       	call   800b9f <cli>
  800f62:	83 ec 0c             	sub    $0xc,%esp
  800f65:	8d 83 99 67 ff ff    	lea    -0x9867(%ebx),%eax
  800f6b:	50                   	push   %eax
  800f6c:	8d 83 44 68 ff ff    	lea    -0x97bc(%ebx),%eax
  800f72:	50                   	push   %eax
  800f73:	6a 41                	push   $0x41
  800f75:	8d 83 07 67 ff ff    	lea    -0x98f9(%ebx),%eax
  800f7b:	50                   	push   %eax
  800f7c:	8d 83 20 67 ff ff    	lea    -0x98e0(%ebx),%eax
  800f82:	50                   	push   %eax
  800f83:	e8 e8 13 03 00       	call   832370 <printf>
  800f88:	83 c4 20             	add    $0x20,%esp
  800f8b:	b8 01 00 00 00       	mov    $0x1,%eax
  800f90:	82 8b 45 08 8b 40 04 	orb    $0x4,0x408b0845(%ebx)
  800f97:	8b 00                	mov    (%eax),%eax
  800f99:	8b 40 04             	mov    0x4(%eax),%eax
  800f9c:	85 c0                	test   %eax,%eax
  800f9e:	74 13                	je     800fb3 <SDL_SetPalette+0x124>
  800fa0:	8b 45 08             	mov    0x8(%ebp),%eax
  800fa3:	8b 40 04             	mov    0x4(%eax),%eax
  800fa6:	8b 00                	mov    (%eax),%eax
  800fa8:	8b 00                	mov    (%eax),%eax
  800faa:	3b 45 18             	cmp    0x18(%ebp),%eax
  800fad:	0f 84 95 00 00 00    	je     801048 <SDL_SetPalette+0x1b9>
  800fb3:	8b 45 08             	mov    0x8(%ebp),%eax
  800fb6:	8b 40 04             	mov    0x4(%eax),%eax
  800fb9:	8b 00                	mov    (%eax),%eax
  800fbb:	8b 00                	mov    (%eax),%eax
  800fbd:	3b 45 18             	cmp    0x18(%ebp),%eax
  800fc0:	74 26                	je     800fe8 <SDL_SetPalette+0x159>
  800fc2:	8b 45 08             	mov    0x8(%ebp),%eax
  800fc5:	8b 40 04             	mov    0x4(%eax),%eax
  800fc8:	8b 00                	mov    (%eax),%eax
  800fca:	8b 40 04             	mov    0x4(%eax),%eax
  800fcd:	85 c0                	test   %eax,%eax
  800fcf:	74 17                	je     800fe8 <SDL_SetPalette+0x159>
  800fd1:	8b 45 08             	mov    0x8(%ebp),%eax
  800fd4:	8b 40 04             	mov    0x4(%eax),%eax
  800fd7:	8b 00                	mov    (%eax),%eax
  800fd9:	8b 40 04             	mov    0x4(%eax),%eax
  800fdc:	83 ec 0c             	sub    $0xc,%esp
  800fdf:	50                   	push   %eax
  800fe0:	e8 8b 09 03 00       	call   831970 <free>
  800fe5:	83 c4 10             	add    $0x10,%esp
  800fe8:	8b 45 08             	mov    0x8(%ebp),%eax
  800feb:	8b 40 04             	mov    0x4(%eax),%eax
  800fee:	8b 30                	mov    (%eax),%esi
  800ff0:	8b 45 18             	mov    0x18(%ebp),%eax
  800ff3:	c1 e0 02             	shl    $0x2,%eax
  800ff6:	83 ec 0c             	sub    $0xc,%esp
  800ff9:	50                   	push   %eax
  800ffa:	e8 51 09 03 00       	call   831950 <malloc>
  800fff:	83 c4 10             	add    $0x10,%esp
  801002:	89 46 04             	mov    %eax,0x4(%esi)
  801005:	8b 45 08             	mov    0x8(%ebp),%eax
  801008:	8b 40 04             	mov    0x4(%eax),%eax
  80100b:	8b 00                	mov    (%eax),%eax
  80100d:	8b 40 04             	mov    0x4(%eax),%eax
  801010:	85 c0                	test   %eax,%eax
  801012:	75 34                	jne    801048 <SDL_SetPalette+0x1b9>
  801014:	e8 86 fb ff ff       	call   800b9f <cli>
  801019:	83 ec 0c             	sub    $0xc,%esp
  80101c:	8d 83 a9 67 ff ff    	lea    -0x9857(%ebx),%eax
  801022:	50                   	push   %eax
  801023:	8d 83 44 68 ff ff    	lea    -0x97bc(%ebx),%eax
  801029:	50                   	push   %eax
  80102a:	6a 4d                	push   $0x4d
  80102c:	8d 83 07 67 ff ff    	lea    -0x98f9(%ebx),%eax
  801032:	50                   	push   %eax
  801033:	8d 83 20 67 ff ff    	lea    -0x98e0(%ebx),%eax
  801039:	50                   	push   %eax
  80103a:	e8 31 13 03 00       	call   832370 <printf>
  80103f:	83 c4 20             	add    $0x20,%esp
  801042:	b8 01 00 00 00       	mov    $0x1,%eax
  801047:	82 8b 45 08 8b 40 04 	orb    $0x4,0x408b0845(%ebx)
  80104e:	8b 00                	mov    (%eax),%eax
  801050:	8b 55 18             	mov    0x18(%ebp),%edx
  801053:	89 10                	mov    %edx,(%eax)
  801055:	8b 45 18             	mov    0x18(%ebp),%eax
  801058:	8d 14 85 00 00 00 00 	lea    0x0(,%eax,4),%edx
  80105f:	8b 45 08             	mov    0x8(%ebp),%eax
  801062:	8b 40 04             	mov    0x4(%eax),%eax
  801065:	8b 00                	mov    (%eax),%eax
  801067:	8b 40 04             	mov    0x4(%eax),%eax
  80106a:	83 ec 04             	sub    $0x4,%esp
  80106d:	52                   	push   %edx
  80106e:	ff 75 10             	pushl  0x10(%ebp)
  801071:	50                   	push   %eax
  801072:	e8 f1 10 03 00       	call   832168 <memcpy>
  801077:	83 c4 10             	add    $0x10,%esp
  80107a:	8b 45 08             	mov    0x8(%ebp),%eax
  80107d:	8b 00                	mov    (%eax),%eax
  80107f:	83 e0 01             	and    $0x1,%eax
  801082:	85 c0                	test   %eax,%eax
  801084:	74 11                	je     801097 <SDL_SetPalette+0x208>
  801086:	83 ec 08             	sub    $0x8,%esp
  801089:	ff 75 18             	pushl  0x18(%ebp)
  80108c:	ff 75 10             	pushl  0x10(%ebp)
  80108f:	e8 fa f0 ff ff       	call   80018e <write_palette>
  801094:	83 c4 10             	add    $0x10,%esp
  801097:	90                   	nop
  801098:	8d 65 f8             	lea    -0x8(%ebp),%esp
  80109b:	5b                   	pop    %ebx
  80109c:	5e                   	pop    %esi
  80109d:	5d                   	pop    %ebp
  80109e:	c3                   	ret    

0080109f <SDL_UpdateRect>:
  80109f:	55                   	push   %ebp
  8010a0:	89 e5                	mov    %esp,%ebp
  8010a2:	53                   	push   %ebx
  8010a3:	83 ec 54             	sub    $0x54,%esp
  8010a6:	e8 8f f0 ff ff       	call   80013a <__x86.get_pc_thunk.bx>
  8010ab:	81 c3 55 9f 04 00    	add    $0x49f55,%ebx
  8010b1:	83 7d 08 00          	cmpl   $0x0,0x8(%ebp)
  8010b5:	75 34                	jne    8010eb <SDL_UpdateRect+0x4c>
  8010b7:	e8 e3 fa ff ff       	call   800b9f <cli>
  8010bc:	83 ec 0c             	sub    $0xc,%esp
  8010bf:	8d 83 c4 67 ff ff    	lea    -0x983c(%ebx),%eax
  8010c5:	50                   	push   %eax
  8010c6:	8d 83 54 68 ff ff    	lea    -0x97ac(%ebx),%eax
  8010cc:	50                   	push   %eax
  8010cd:	6a 5d                	push   $0x5d
  8010cf:	8d 83 07 67 ff ff    	lea    -0x98f9(%ebx),%eax
  8010d5:	50                   	push   %eax
  8010d6:	8d 83 20 67 ff ff    	lea    -0x98e0(%ebx),%eax
  8010dc:	50                   	push   %eax
  8010dd:	e8 8e 12 03 00       	call   832370 <printf>
  8010e2:	83 c4 20             	add    $0x20,%esp
  8010e5:	b8 01 00 00 00       	mov    $0x1,%eax
  8010ea:	82 8b 45 08 0f b7 40 	orb    $0x40,-0x48f0f7bb(%ebx)
  8010f1:	10 66 3d             	adc    %ah,0x3d(%esi)
  8010f4:	40                   	inc    %eax
  8010f5:	01 74 34 e8          	add    %esi,-0x18(%esp,%esi,1)
  8010f9:	a2 fa ff ff 83       	mov    %al,0x83fffffa
  8010fe:	ec                   	in     (%dx),%al
  8010ff:	0c 8d                	or     $0x8d,%al
  801101:	83 cb 67             	or     $0x67,%ebx
  801104:	ff                   	(bad)  
  801105:	ff 50 8d             	call   *-0x73(%eax)
  801108:	83 54 68 ff ff       	adcl   $0xffffffff,-0x1(%eax,%ebp,2)
  80110d:	50                   	push   %eax
  80110e:	6a 5e                	push   $0x5e
  801110:	8d 83 07 67 ff ff    	lea    -0x98f9(%ebx),%eax
  801116:	50                   	push   %eax
  801117:	8d 83 20 67 ff ff    	lea    -0x98e0(%ebx),%eax
  80111d:	50                   	push   %eax
  80111e:	e8 4d 12 03 00       	call   832370 <printf>
  801123:	83 c4 20             	add    $0x20,%esp
  801126:	b8 01 00 00 00       	mov    $0x1,%eax
  80112b:	82 8b 45 08 8b 00 83 	orb    $0x83,0x8b0845(%ebx)
  801132:	e0 01                	loopne 801135 <SDL_UpdateRect+0x96>
  801134:	85 c0                	test   %eax,%eax
  801136:	75 34                	jne    80116c <SDL_UpdateRect+0xcd>
  801138:	e8 62 fa ff ff       	call   800b9f <cli>
  80113d:	83 ec 0c             	sub    $0xc,%esp
  801140:	8d 83 e0 67 ff ff    	lea    -0x9820(%ebx),%eax
  801146:	50                   	push   %eax
  801147:	8d 83 54 68 ff ff    	lea    -0x97ac(%ebx),%eax
  80114d:	50                   	push   %eax
  80114e:	6a 61                	push   $0x61
  801150:	8d 83 07 67 ff ff    	lea    -0x98f9(%ebx),%eax
  801156:	50                   	push   %eax
  801157:	8d 83 20 67 ff ff    	lea    -0x98e0(%ebx),%eax
  80115d:	50                   	push   %eax
  80115e:	e8 0d 12 03 00       	call   832370 <printf>
  801163:	83 c4 20             	add    $0x20,%esp
  801166:	b8 01 00 00 00       	mov    $0x1,%eax
  80116b:	82 83 7d 0c 00 75 40 	addb   $0x40,0x75000c7d(%ebx)
  801172:	83 7d 10 00          	cmpl   $0x0,0x10(%ebp)
  801176:	75 3a                	jne    8011b2 <SDL_UpdateRect+0x113>
  801178:	c7 c0 20 b4 84 00    	mov    $0x84b420,%eax
  80117e:	c7 00 00 00 0a 00    	movl   $0xa0000,(%eax)
  801184:	e8 2b f6 ff ff       	call   8007b4 <get_fps>
  801189:	83 ec 04             	sub    $0x4,%esp
  80118c:	50                   	push   %eax
  80118d:	8d 83 fe 67 ff ff    	lea    -0x9802(%ebx),%eax
  801193:	50                   	push   %eax
  801194:	8d 45 a8             	lea    -0x58(%ebp),%eax
  801197:	50                   	push   %eax
  801198:	e8 d3 15 03 00       	call   832770 <sprintf>
  80119d:	83 c4 10             	add    $0x10,%esp
  8011a0:	6a 0a                	push   $0xa
  8011a2:	6a 00                	push   $0x0
  8011a4:	6a 00                	push   $0x0
  8011a6:	8d 45 a8             	lea    -0x58(%ebp),%eax
  8011a9:	50                   	push   %eax
  8011aa:	e8 eb f2 ff ff       	call   80049a <draw_string>
  8011af:	83 c4 10             	add    $0x10,%esp
  8011b2:	90                   	nop
  8011b3:	8b 5d fc             	mov    -0x4(%ebp),%ebx
  8011b6:	c9                   	leave  
  8011b7:	c3                   	ret    

008011b8 <SDL_SoftStretch>:
  8011b8:	55                   	push   %ebp
  8011b9:	89 e5                	mov    %esp,%ebp
  8011bb:	53                   	push   %ebx
  8011bc:	83 ec 24             	sub    $0x24,%esp
  8011bf:	e8 76 ef ff ff       	call   80013a <__x86.get_pc_thunk.bx>
  8011c4:	81 c3 3c 9e 04 00    	add    $0x49e3c,%ebx
  8011ca:	83 7d 08 00          	cmpl   $0x0,0x8(%ebp)
  8011ce:	74 06                	je     8011d6 <SDL_SoftStretch+0x1e>
  8011d0:	83 7d 10 00          	cmpl   $0x0,0x10(%ebp)
  8011d4:	75 34                	jne    80120a <SDL_SoftStretch+0x52>
  8011d6:	e8 c4 f9 ff ff       	call   800b9f <cli>
  8011db:	83 ec 0c             	sub    $0xc,%esp
  8011de:	8d 83 04 68 ff ff    	lea    -0x97fc(%ebx),%eax
  8011e4:	50                   	push   %eax
  8011e5:	8d 83 64 68 ff ff    	lea    -0x979c(%ebx),%eax
  8011eb:	50                   	push   %eax
  8011ec:	6a 6e                	push   $0x6e
  8011ee:	8d 83 07 67 ff ff    	lea    -0x98f9(%ebx),%eax
  8011f4:	50                   	push   %eax
  8011f5:	8d 83 20 67 ff ff    	lea    -0x98e0(%ebx),%eax
  8011fb:	50                   	push   %eax
  8011fc:	e8 6f 11 03 00       	call   832370 <printf>
  801201:	83 c4 20             	add    $0x20,%esp
  801204:	b8 01 00 00 00       	mov    $0x1,%eax
  801209:	82 83 7d 0c 00 74 09 	addb   $0x9,0x74000c7d(%ebx)
  801210:	8b 45 0c             	mov    0xc(%ebp),%eax
  801213:	0f b7 00             	movzwl (%eax),%eax
  801216:	98                   	cwtl   
  801217:	eb 05                	jmp    80121e <SDL_SoftStretch+0x66>
  801219:	b8 00 00 00 00       	mov    $0x0,%eax
  80121e:	89 45 f4             	mov    %eax,-0xc(%ebp)
  801221:	83 7d 0c 00          	cmpl   $0x0,0xc(%ebp)
  801225:	74 0a                	je     801231 <SDL_SoftStretch+0x79>
  801227:	8b 45 0c             	mov    0xc(%ebp),%eax
  80122a:	0f b7 40 02          	movzwl 0x2(%eax),%eax
  80122e:	98                   	cwtl   
  80122f:	eb 05                	jmp    801236 <SDL_SoftStretch+0x7e>
  801231:	b8 00 00 00 00       	mov    $0x0,%eax
  801236:	89 45 f0             	mov    %eax,-0x10(%ebp)
  801239:	83 7d 0c 00          	cmpl   $0x0,0xc(%ebp)
  80123d:	75 08                	jne    801247 <SDL_SoftStretch+0x8f>
  80123f:	8b 45 08             	mov    0x8(%ebp),%eax
  801242:	8b 40 08             	mov    0x8(%eax),%eax
  801245:	eb 0a                	jmp    801251 <SDL_SoftStretch+0x99>
  801247:	8b 45 0c             	mov    0xc(%ebp),%eax
  80124a:	0f b7 40 04          	movzwl 0x4(%eax),%eax
  80124e:	0f b7 c0             	movzwl %ax,%eax
  801251:	89 45 ec             	mov    %eax,-0x14(%ebp)
  801254:	83 7d 0c 00          	cmpl   $0x0,0xc(%ebp)
  801258:	75 08                	jne    801262 <SDL_SoftStretch+0xaa>
  80125a:	8b 45 08             	mov    0x8(%ebp),%eax
  80125d:	8b 40 0c             	mov    0xc(%eax),%eax
  801260:	eb 0a                	jmp    80126c <SDL_SoftStretch+0xb4>
  801262:	8b 45 0c             	mov    0xc(%ebp),%eax
  801265:	0f b7 40 06          	movzwl 0x6(%eax),%eax
  801269:	0f b7 c0             	movzwl %ax,%eax
  80126c:	89 45 e8             	mov    %eax,-0x18(%ebp)
  80126f:	83 7d 14 00          	cmpl   $0x0,0x14(%ebp)
  801273:	75 34                	jne    8012a9 <SDL_SoftStretch+0xf1>
  801275:	e8 25 f9 ff ff       	call   800b9f <cli>
  80127a:	83 ec 0c             	sub    $0xc,%esp
  80127d:	8d 83 0f 68 ff ff    	lea    -0x97f1(%ebx),%eax
  801283:	50                   	push   %eax
  801284:	8d 83 64 68 ff ff    	lea    -0x979c(%ebx),%eax
  80128a:	50                   	push   %eax
  80128b:	6a 74                	push   $0x74
  80128d:	8d 83 07 67 ff ff    	lea    -0x98f9(%ebx),%eax
  801293:	50                   	push   %eax
  801294:	8d 83 20 67 ff ff    	lea    -0x98e0(%ebx),%eax
  80129a:	50                   	push   %eax
  80129b:	e8 d0 10 03 00       	call   832370 <printf>
  8012a0:	83 c4 20             	add    $0x20,%esp
  8012a3:	b8 01 00 00 00       	mov    $0x1,%eax
  8012a8:	82 8b 45 14 0f b7 40 	orb    $0x40,-0x48f0ebbb(%ebx)
  8012af:	04 0f                	add    $0xf,%al
  8012b1:	b7 c0                	mov    $0xc0,%bh
  8012b3:	3b 45 ec             	cmp    -0x14(%ebp),%eax
  8012b6:	75 42                	jne    8012fa <SDL_SoftStretch+0x142>
  8012b8:	8b 45 14             	mov    0x14(%ebp),%eax
  8012bb:	0f b7 40 06          	movzwl 0x6(%eax),%eax
  8012bf:	0f b7 c0             	movzwl %ax,%eax
  8012c2:	3b 45 e8             	cmp    -0x18(%ebp),%eax
  8012c5:	75 33                	jne    8012fa <SDL_SoftStretch+0x142>
  8012c7:	8b 45 f4             	mov    -0xc(%ebp),%eax
  8012ca:	66 89 45 e0          	mov    %ax,-0x20(%ebp)
  8012ce:	8b 45 f0             	mov    -0x10(%ebp),%eax
  8012d1:	66 89 45 e2          	mov    %ax,-0x1e(%ebp)
  8012d5:	8b 45 ec             	mov    -0x14(%ebp),%eax
  8012d8:	66 89 45 e4          	mov    %ax,-0x1c(%ebp)
  8012dc:	8b 45 e8             	mov    -0x18(%ebp),%eax
  8012df:	66 89 45 e6          	mov    %ax,-0x1a(%ebp)
  8012e3:	ff 75 14             	pushl  0x14(%ebp)
  8012e6:	ff 75 10             	pushl  0x10(%ebp)
  8012e9:	8d 45 e0             	lea    -0x20(%ebp),%eax
  8012ec:	50                   	push   %eax
  8012ed:	ff 75 08             	pushl  0x8(%ebp)
  8012f0:	e8 bb f8 ff ff       	call   800bb0 <SDL_BlitSurface>
  8012f5:	83 c4 10             	add    $0x10,%esp
  8012f8:	eb 37                	jmp    801331 <SDL_SoftStretch+0x179>
  8012fa:	e8 a0 f8 ff ff       	call   800b9f <cli>
  8012ff:	83 ec 0c             	sub    $0xc,%esp
  801302:	8d 83 17 68 ff ff    	lea    -0x97e9(%ebx),%eax
  801308:	50                   	push   %eax
  801309:	8d 83 64 68 ff ff    	lea    -0x979c(%ebx),%eax
  80130f:	50                   	push   %eax
  801310:	68 82 00 00 00       	push   $0x82
  801315:	8d 83 07 67 ff ff    	lea    -0x98f9(%ebx),%eax
  80131b:	50                   	push   %eax
  80131c:	8d 83 20 67 ff ff    	lea    -0x98e0(%ebx),%eax
  801322:	50                   	push   %eax
  801323:	e8 48 10 03 00       	call   832370 <printf>
  801328:	83 c4 20             	add    $0x20,%esp
  80132b:	b8 01 00 00 00       	mov    $0x1,%eax
  801330:	82 90 8b 5d fc c9 c3 	adcb   $0xc3,-0x3603a275(%eax)

00801337 <SDL_CreateRGBSurface>:
  801337:	55                   	push   %ebp
  801338:	89 e5                	mov    %esp,%ebp
  80133a:	56                   	push   %esi
  80133b:	53                   	push   %ebx
  80133c:	83 ec 10             	sub    $0x10,%esp
  80133f:	e8 f6 ed ff ff       	call   80013a <__x86.get_pc_thunk.bx>
  801344:	81 c3 bc 9c 04 00    	add    $0x49cbc,%ebx
  80134a:	83 ec 0c             	sub    $0xc,%esp
  80134d:	6a 24                	push   $0x24
  80134f:	e8 fc 05 03 00       	call   831950 <malloc>
  801354:	83 c4 10             	add    $0x10,%esp
  801357:	89 45 f4             	mov    %eax,-0xc(%ebp)
  80135a:	83 7d f4 00          	cmpl   $0x0,-0xc(%ebp)
  80135e:	75 37                	jne    801397 <SDL_CreateRGBSurface+0x60>
  801360:	e8 3a f8 ff ff       	call   800b9f <cli>
  801365:	83 ec 0c             	sub    $0xc,%esp
  801368:	8d 83 7a 67 ff ff    	lea    -0x9886(%ebx),%eax
  80136e:	50                   	push   %eax
  80136f:	8d 83 74 68 ff ff    	lea    -0x978c(%ebx),%eax
  801375:	50                   	push   %eax
  801376:	68 89 00 00 00       	push   $0x89
  80137b:	8d 83 07 67 ff ff    	lea    -0x98f9(%ebx),%eax
  801381:	50                   	push   %eax
  801382:	8d 83 20 67 ff ff    	lea    -0x98e0(%ebx),%eax
  801388:	50                   	push   %eax
  801389:	e8 e2 0f 03 00       	call   832370 <printf>
  80138e:	83 c4 20             	add    $0x20,%esp
  801391:	b8 01 00 00 00       	mov    $0x1,%eax
  801396:	82 83 ec 0c 6a 28 e8 	addb   $0xe8,0x286a0cec(%ebx)
  80139d:	af                   	scas   %es:(%edi),%eax
  80139e:	05 03 00 83 c4       	add    $0xc4830003,%eax
  8013a3:	10 89 c2 8b 45 f4    	adc    %cl,-0xbba743e(%ecx)
  8013a9:	89 50 04             	mov    %edx,0x4(%eax)
  8013ac:	83 7d f4 00          	cmpl   $0x0,-0xc(%ebp)
  8013b0:	75 37                	jne    8013e9 <SDL_CreateRGBSurface+0xb2>
  8013b2:	e8 e8 f7 ff ff       	call   800b9f <cli>
  8013b7:	83 ec 0c             	sub    $0xc,%esp
  8013ba:	8d 83 7a 67 ff ff    	lea    -0x9886(%ebx),%eax
  8013c0:	50                   	push   %eax
  8013c1:	8d 83 74 68 ff ff    	lea    -0x978c(%ebx),%eax
  8013c7:	50                   	push   %eax
  8013c8:	68 8b 00 00 00       	push   $0x8b
  8013cd:	8d 83 07 67 ff ff    	lea    -0x98f9(%ebx),%eax
  8013d3:	50                   	push   %eax
  8013d4:	8d 83 20 67 ff ff    	lea    -0x98e0(%ebx),%eax
  8013da:	50                   	push   %eax
  8013db:	e8 90 0f 03 00       	call   832370 <printf>
  8013e0:	83 c4 20             	add    $0x20,%esp
  8013e3:	b8 01 00 00 00       	mov    $0x1,%eax
  8013e8:	82 8b 45 f4 8b 70 04 	orb    $0x4,0x708bf445(%ebx)
  8013ef:	83 ec 0c             	sub    $0xc,%esp
  8013f2:	6a 08                	push   $0x8
  8013f4:	e8 57 05 03 00       	call   831950 <malloc>
  8013f9:	83 c4 10             	add    $0x10,%esp
  8013fc:	89 06                	mov    %eax,(%esi)
  8013fe:	8b 45 f4             	mov    -0xc(%ebp),%eax
  801401:	8b 40 04             	mov    0x4(%eax),%eax
  801404:	8b 00                	mov    (%eax),%eax
  801406:	85 c0                	test   %eax,%eax
  801408:	75 37                	jne    801441 <SDL_CreateRGBSurface+0x10a>
  80140a:	e8 90 f7 ff ff       	call   800b9f <cli>
  80140f:	83 ec 0c             	sub    $0xc,%esp
  801412:	8d 83 86 67 ff ff    	lea    -0x987a(%ebx),%eax
  801418:	50                   	push   %eax
  801419:	8d 83 74 68 ff ff    	lea    -0x978c(%ebx),%eax
  80141f:	50                   	push   %eax
  801420:	68 8d 00 00 00       	push   $0x8d
  801425:	8d 83 07 67 ff ff    	lea    -0x98f9(%ebx),%eax
  80142b:	50                   	push   %eax
  80142c:	8d 83 20 67 ff ff    	lea    -0x98e0(%ebx),%eax
  801432:	50                   	push   %eax
  801433:	e8 38 0f 03 00       	call   832370 <printf>
  801438:	83 c4 20             	add    $0x20,%esp
  80143b:	b8 01 00 00 00       	mov    $0x1,%eax
  801440:	82 8b 45 f4 8b 40 04 	orb    $0x4,0x408bf445(%ebx)
  801447:	8b 00                	mov    (%eax),%eax
  801449:	c7 40 04 00 00 00 00 	movl   $0x0,0x4(%eax)
  801450:	8b 45 f4             	mov    -0xc(%ebp),%eax
  801453:	8b 40 04             	mov    0x4(%eax),%eax
  801456:	8b 55 14             	mov    0x14(%ebp),%edx
  801459:	88 50 04             	mov    %dl,0x4(%eax)
  80145c:	8b 45 f4             	mov    -0xc(%ebp),%eax
  80145f:	8b 55 08             	mov    0x8(%ebp),%edx
  801462:	89 10                	mov    %edx,(%eax)
  801464:	8b 45 f4             	mov    -0xc(%ebp),%eax
  801467:	8b 55 0c             	mov    0xc(%ebp),%edx
  80146a:	89 50 08             	mov    %edx,0x8(%eax)
  80146d:	8b 45 f4             	mov    -0xc(%ebp),%eax
  801470:	8b 55 10             	mov    0x10(%ebp),%edx
  801473:	89 50 0c             	mov    %edx,0xc(%eax)
  801476:	8b 45 0c             	mov    0xc(%ebp),%eax
  801479:	0f af 45 14          	imul   0x14(%ebp),%eax
  80147d:	c1 f8 03             	sar    $0x3,%eax
  801480:	89 c2                	mov    %eax,%edx
  801482:	8b 45 f4             	mov    -0xc(%ebp),%eax
  801485:	66 89 50 10          	mov    %dx,0x10(%eax)
  801489:	8b 45 08             	mov    0x8(%ebp),%eax
  80148c:	83 e0 01             	and    $0x1,%eax
  80148f:	85 c0                	test   %eax,%eax
  801491:	75 1e                	jne    8014b1 <SDL_CreateRGBSurface+0x17a>
  801493:	8b 45 f4             	mov    -0xc(%ebp),%eax
  801496:	0f b7 40 10          	movzwl 0x10(%eax),%eax
  80149a:	0f b7 c0             	movzwl %ax,%eax
  80149d:	0f af 45 10          	imul   0x10(%ebp),%eax
  8014a1:	83 ec 0c             	sub    $0xc,%esp
  8014a4:	50                   	push   %eax
  8014a5:	e8 a6 04 03 00       	call   831950 <malloc>
  8014aa:	83 c4 10             	add    $0x10,%esp
  8014ad:	89 c2                	mov    %eax,%edx
  8014af:	eb 05                	jmp    8014b6 <SDL_CreateRGBSurface+0x17f>
  8014b1:	ba 00 00 0a 00       	mov    $0xa0000,%edx
  8014b6:	8b 45 f4             	mov    -0xc(%ebp),%eax
  8014b9:	89 50 20             	mov    %edx,0x20(%eax)
  8014bc:	8b 45 f4             	mov    -0xc(%ebp),%eax
  8014bf:	8b 40 20             	mov    0x20(%eax),%eax
  8014c2:	85 c0                	test   %eax,%eax
  8014c4:	75 37                	jne    8014fd <SDL_CreateRGBSurface+0x1c6>
  8014c6:	e8 d4 f6 ff ff       	call   800b9f <cli>
  8014cb:	83 ec 0c             	sub    $0xc,%esp
  8014ce:	8d 83 19 68 ff ff    	lea    -0x97e7(%ebx),%eax
  8014d4:	50                   	push   %eax
  8014d5:	8d 83 74 68 ff ff    	lea    -0x978c(%ebx),%eax
  8014db:	50                   	push   %eax
  8014dc:	68 97 00 00 00       	push   $0x97
  8014e1:	8d 83 07 67 ff ff    	lea    -0x98f9(%ebx),%eax
  8014e7:	50                   	push   %eax
  8014e8:	8d 83 20 67 ff ff    	lea    -0x98e0(%ebx),%eax
  8014ee:	50                   	push   %eax
  8014ef:	e8 7c 0e 03 00       	call   832370 <printf>
  8014f4:	83 c4 20             	add    $0x20,%esp
  8014f7:	b8 01 00 00 00       	mov    $0x1,%eax
  8014fc:	82 8b 45 f4 8d 65 f8 	orb    $0xf8,0x658df445(%ebx)
  801503:	5b                   	pop    %ebx
  801504:	5e                   	pop    %esi
  801505:	5d                   	pop    %ebp
  801506:	c3                   	ret    

00801507 <SDL_SetVideoMode>:
  801507:	55                   	push   %ebp
  801508:	89 e5                	mov    %esp,%ebp
  80150a:	83 ec 08             	sub    $0x8,%esp
  80150d:	e8 24 ec ff ff       	call   800136 <__x86.get_pc_thunk.ax>
  801512:	05 ee 9a 04 00       	add    $0x49aee,%eax
  801517:	68 00 00 00 ff       	push   $0xff000000
  80151c:	68 00 00 ff 00       	push   $0xff0000
  801521:	68 00 ff 00 00       	push   $0xff00
  801526:	68 ff 00 00 00       	push   $0xff
  80152b:	ff 75 10             	pushl  0x10(%ebp)
  80152e:	ff 75 0c             	pushl  0xc(%ebp)
  801531:	ff 75 08             	pushl  0x8(%ebp)
  801534:	ff 75 14             	pushl  0x14(%ebp)
  801537:	e8 fb fd ff ff       	call   801337 <SDL_CreateRGBSurface>
  80153c:	83 c4 20             	add    $0x20,%esp
  80153f:	c9                   	leave  
  801540:	c3                   	ret    

00801541 <SDL_FreeSurface>:
  801541:	55                   	push   %ebp
  801542:	89 e5                	mov    %esp,%ebp
  801544:	53                   	push   %ebx
  801545:	83 ec 04             	sub    $0x4,%esp
  801548:	e8 ed eb ff ff       	call   80013a <__x86.get_pc_thunk.bx>
  80154d:	81 c3 b3 9a 04 00    	add    $0x49ab3,%ebx
  801553:	83 7d 08 00          	cmpl   $0x0,0x8(%ebp)
  801557:	0f 84 99 00 00 00    	je     8015f6 <SDL_FreeSurface+0xb5>
  80155d:	8b 45 08             	mov    0x8(%ebp),%eax
  801560:	8b 40 04             	mov    0x4(%eax),%eax
  801563:	85 c0                	test   %eax,%eax
  801565:	74 58                	je     8015bf <SDL_FreeSurface+0x7e>
  801567:	8b 45 08             	mov    0x8(%ebp),%eax
  80156a:	8b 40 04             	mov    0x4(%eax),%eax
  80156d:	8b 00                	mov    (%eax),%eax
  80156f:	85 c0                	test   %eax,%eax
  801571:	74 3a                	je     8015ad <SDL_FreeSurface+0x6c>
  801573:	8b 45 08             	mov    0x8(%ebp),%eax
  801576:	8b 40 04             	mov    0x4(%eax),%eax
  801579:	8b 00                	mov    (%eax),%eax
  80157b:	8b 40 04             	mov    0x4(%eax),%eax
  80157e:	85 c0                	test   %eax,%eax
  801580:	74 17                	je     801599 <SDL_FreeSurface+0x58>
  801582:	8b 45 08             	mov    0x8(%ebp),%eax
  801585:	8b 40 04             	mov    0x4(%eax),%eax
  801588:	8b 00                	mov    (%eax),%eax
  80158a:	8b 40 04             	mov    0x4(%eax),%eax
  80158d:	83 ec 0c             	sub    $0xc,%esp
  801590:	50                   	push   %eax
  801591:	e8 da 03 03 00       	call   831970 <free>
  801596:	83 c4 10             	add    $0x10,%esp
  801599:	8b 45 08             	mov    0x8(%ebp),%eax
  80159c:	8b 40 04             	mov    0x4(%eax),%eax
  80159f:	8b 00                	mov    (%eax),%eax
  8015a1:	83 ec 0c             	sub    $0xc,%esp
  8015a4:	50                   	push   %eax
  8015a5:	e8 c6 03 03 00       	call   831970 <free>
  8015aa:	83 c4 10             	add    $0x10,%esp
  8015ad:	8b 45 08             	mov    0x8(%ebp),%eax
  8015b0:	8b 40 04             	mov    0x4(%eax),%eax
  8015b3:	83 ec 0c             	sub    $0xc,%esp
  8015b6:	50                   	push   %eax
  8015b7:	e8 b4 03 03 00       	call   831970 <free>
  8015bc:	83 c4 10             	add    $0x10,%esp
  8015bf:	8b 45 08             	mov    0x8(%ebp),%eax
  8015c2:	8b 40 20             	mov    0x20(%eax),%eax
  8015c5:	85 c0                	test   %eax,%eax
  8015c7:	74 1f                	je     8015e8 <SDL_FreeSurface+0xa7>
  8015c9:	8b 45 08             	mov    0x8(%ebp),%eax
  8015cc:	8b 40 20             	mov    0x20(%eax),%eax
  8015cf:	3d 00 00 0a 00       	cmp    $0xa0000,%eax
  8015d4:	74 12                	je     8015e8 <SDL_FreeSurface+0xa7>
  8015d6:	8b 45 08             	mov    0x8(%ebp),%eax
  8015d9:	8b 40 20             	mov    0x20(%eax),%eax
  8015dc:	83 ec 0c             	sub    $0xc,%esp
  8015df:	50                   	push   %eax
  8015e0:	e8 8b 03 03 00       	call   831970 <free>
  8015e5:	83 c4 10             	add    $0x10,%esp
  8015e8:	83 ec 0c             	sub    $0xc,%esp
  8015eb:	ff 75 08             	pushl  0x8(%ebp)
  8015ee:	e8 7d 03 03 00       	call   831970 <free>
  8015f3:	83 c4 10             	add    $0x10,%esp
  8015f6:	90                   	nop
  8015f7:	8b 5d fc             	mov    -0x4(%ebp),%ebx
  8015fa:	c9                   	leave  
  8015fb:	c3                   	ret    

008015fc <cli>:
  8015fc:	55                   	push   %ebp
  8015fd:	89 e5                	mov    %esp,%ebp
  8015ff:	e8 32 eb ff ff       	call   800136 <__x86.get_pc_thunk.ax>
  801604:	05 fc 99 04 00       	add    $0x499fc,%eax
  801609:	fa                   	cli    
  80160a:	90                   	nop
  80160b:	5d                   	pop    %ebp
  80160c:	c3                   	ret    

0080160d <f2u>:
  80160d:	55                   	push   %ebp
  80160e:	89 e5                	mov    %esp,%ebp
  801610:	83 ec 10             	sub    $0x10,%esp
  801613:	e8 1e eb ff ff       	call   800136 <__x86.get_pc_thunk.ax>
  801618:	05 e8 99 04 00       	add    $0x499e8,%eax
  80161d:	8d 45 08             	lea    0x8(%ebp),%eax
  801620:	89 45 fc             	mov    %eax,-0x4(%ebp)
  801623:	8b 45 fc             	mov    -0x4(%ebp),%eax
  801626:	8b 00                	mov    (%eax),%eax
  801628:	c9                   	leave  
  801629:	c3                   	ret    

0080162a <pow>:
  80162a:	55                   	push   %ebp
  80162b:	89 e5                	mov    %esp,%ebp
  80162d:	53                   	push   %ebx
  80162e:	83 ec 14             	sub    $0x14,%esp
  801631:	e8 04 eb ff ff       	call   80013a <__x86.get_pc_thunk.bx>
  801636:	81 c3 ca 99 04 00    	add    $0x499ca,%ebx
  80163c:	d9 83 04 6b ff ff    	flds   -0x94fc(%ebx)
  801642:	d9 5d f4             	fstps  -0xc(%ebp)
  801645:	d9 45 f4             	flds   -0xc(%ebp)
  801648:	d9 5d f0             	fstps  -0x10(%ebp)
  80164b:	d9 45 f0             	flds   -0x10(%ebp)
  80164e:	d8 4d f0             	fmuls  -0x10(%ebp)
  801651:	d9 5d ec             	fstps  -0x14(%ebp)
  801654:	d9 45 08             	flds   0x8(%ebp)
  801657:	d8 75 ec             	fdivs  -0x14(%ebp)
  80165a:	d8 65 f0             	fsubs  -0x10(%ebp)
  80165d:	d9 83 08 6b ff ff    	flds   -0x94f8(%ebx)
  801663:	de f9                	fdivrp %st,%st(1)
  801665:	d9 5d e8             	fstps  -0x18(%ebp)
  801668:	d9 45 f0             	flds   -0x10(%ebp)
  80166b:	d8 45 e8             	fadds  -0x18(%ebp)
  80166e:	d9 5d f4             	fstps  -0xc(%ebp)
  801671:	ff 75 e8             	pushl  -0x18(%ebp)
  801674:	e8 94 ff ff ff       	call   80160d <f2u>
  801679:	83 c4 04             	add    $0x4,%esp
  80167c:	85 c0                	test   %eax,%eax
  80167e:	79 07                	jns    801687 <pow+0x5d>
  801680:	d9 45 e8             	flds   -0x18(%ebp)
  801683:	d9 e0                	fchs   
  801685:	eb 03                	jmp    80168a <pow+0x60>
  801687:	d9 45 e8             	flds   -0x18(%ebp)
  80168a:	dd 83 10 6b ff ff    	fldl   -0x94f0(%ebx)
  801690:	d9 c9                	fxch   %st(1)
  801692:	df e9                	fucomip %st(1),%st
  801694:	dd d8                	fstp   %st(0)
  801696:	77 ad                	ja     801645 <pow+0x1b>
  801698:	d9 45 f4             	flds   -0xc(%ebp)
  80169b:	8b 5d fc             	mov    -0x4(%ebp),%ebx
  80169e:	c9                   	leave  
  80169f:	c3                   	ret    

008016a0 <PAL_IsPlayerDying>:
  8016a0:	55                   	push   %ebp
  8016a1:	89 e5                	mov    %esp,%ebp
  8016a3:	83 ec 04             	sub    $0x4,%esp
  8016a6:	e8 8b ea ff ff       	call   800136 <__x86.get_pc_thunk.ax>
  8016ab:	05 55 99 04 00       	add    $0x49955,%eax
  8016b0:	8b 55 08             	mov    0x8(%ebp),%edx
  8016b3:	66 89 55 fc          	mov    %dx,-0x4(%ebp)
  8016b7:	c7 c2 5c 24 86 00    	mov    $0x86245c,%edx
  8016bd:	8b 12                	mov    (%edx),%edx
  8016bf:	0f b7 4d fc          	movzwl -0x4(%ebp),%ecx
  8016c3:	81 c1 10 13 00 00    	add    $0x1310,%ecx
  8016c9:	0f b7 54 4a 14       	movzwl 0x14(%edx,%ecx,2),%edx
  8016ce:	c7 c0 5c 24 86 00    	mov    $0x86245c,%eax
  8016d4:	8b 00                	mov    (%eax),%eax
  8016d6:	0f b7 4d fc          	movzwl -0x4(%ebp),%ecx
  8016da:	81 c1 08 13 00 00    	add    $0x1308,%ecx
  8016e0:	0f b7 44 48 0c       	movzwl 0xc(%eax,%ecx,2),%eax
  8016e5:	0f b7 c0             	movzwl %ax,%eax
  8016e8:	69 c0 cd cc 00 00    	imul   $0xcccd,%eax,%eax
  8016ee:	c1 e8 10             	shr    $0x10,%eax
  8016f1:	66 c1 e8 02          	shr    $0x2,%ax
  8016f5:	66 39 c2             	cmp    %ax,%dx
  8016f8:	0f 92 c0             	setb   %al
  8016fb:	0f b6 c0             	movzbl %al,%eax
  8016fe:	c9                   	leave  
  8016ff:	c3                   	ret    

00801700 <PAL_BattleSelectAutoTarget>:
  801700:	55                   	push   %ebp
  801701:	89 e5                	mov    %esp,%ebp
  801703:	83 ec 10             	sub    $0x10,%esp
  801706:	e8 2b ea ff ff       	call   800136 <__x86.get_pc_thunk.ax>
  80170b:	05 f5 98 04 00       	add    $0x498f5,%eax
  801710:	c7 c2 e0 31 86 00    	mov    $0x8631e0,%edx
  801716:	0f b7 92 f8 06 00 00 	movzwl 0x6f8(%edx),%edx
  80171d:	0f b7 d2             	movzwl %dx,%edx
  801720:	89 55 fc             	mov    %edx,-0x4(%ebp)
  801723:	83 7d fc 00          	cmpl   $0x0,-0x4(%ebp)
  801727:	78 58                	js     801781 <PAL_BattleSelectAutoTarget+0x81>
  801729:	c7 c2 e0 31 86 00    	mov    $0x8631e0,%edx
  80172f:	0f b7 92 b0 04 00 00 	movzwl 0x4b0(%edx),%edx
  801736:	0f b7 d2             	movzwl %dx,%edx
  801739:	3b 55 fc             	cmp    -0x4(%ebp),%edx
  80173c:	7c 43                	jl     801781 <PAL_BattleSelectAutoTarget+0x81>
  80173e:	c7 c1 e0 31 86 00    	mov    $0x8631e0,%ecx
  801744:	8b 55 fc             	mov    -0x4(%ebp),%edx
  801747:	69 d2 cc 00 00 00    	imul   $0xcc,%edx,%edx
  80174d:	01 ca                	add    %ecx,%edx
  80174f:	81 c2 b4 00 00 00    	add    $0xb4,%edx
  801755:	0f b7 12             	movzwl (%edx),%edx
  801758:	66 85 d2             	test   %dx,%dx
  80175b:	74 24                	je     801781 <PAL_BattleSelectAutoTarget+0x81>
  80175d:	c7 c1 e0 31 86 00    	mov    $0x8631e0,%ecx
  801763:	8b 55 fc             	mov    -0x4(%ebp),%edx
  801766:	69 d2 cc 00 00 00    	imul   $0xcc,%edx,%edx
  80176c:	01 ca                	add    %ecx,%edx
  80176e:	81 c2 cc 00 00 00    	add    $0xcc,%edx
  801774:	0f b7 12             	movzwl (%edx),%edx
  801777:	66 85 d2             	test   %dx,%dx
  80177a:	74 05                	je     801781 <PAL_BattleSelectAutoTarget+0x81>
  80177c:	8b 45 fc             	mov    -0x4(%ebp),%eax
  80177f:	eb 6a                	jmp    8017eb <PAL_BattleSelectAutoTarget+0xeb>
  801781:	c7 45 fc 00 00 00 00 	movl   $0x0,-0x4(%ebp)
  801788:	eb 47                	jmp    8017d1 <PAL_BattleSelectAutoTarget+0xd1>
  80178a:	c7 c1 e0 31 86 00    	mov    $0x8631e0,%ecx
  801790:	8b 55 fc             	mov    -0x4(%ebp),%edx
  801793:	69 d2 cc 00 00 00    	imul   $0xcc,%edx,%edx
  801799:	01 ca                	add    %ecx,%edx
  80179b:	81 c2 b4 00 00 00    	add    $0xb4,%edx
  8017a1:	0f b7 12             	movzwl (%edx),%edx
  8017a4:	66 85 d2             	test   %dx,%dx
  8017a7:	74 24                	je     8017cd <PAL_BattleSelectAutoTarget+0xcd>
  8017a9:	c7 c1 e0 31 86 00    	mov    $0x8631e0,%ecx
  8017af:	8b 55 fc             	mov    -0x4(%ebp),%edx
  8017b2:	69 d2 cc 00 00 00    	imul   $0xcc,%edx,%edx
  8017b8:	01 ca                	add    %ecx,%edx
  8017ba:	81 c2 cc 00 00 00    	add    $0xcc,%edx
  8017c0:	0f b7 12             	movzwl (%edx),%edx
  8017c3:	66 85 d2             	test   %dx,%dx
  8017c6:	74 05                	je     8017cd <PAL_BattleSelectAutoTarget+0xcd>
  8017c8:	8b 45 fc             	mov    -0x4(%ebp),%eax
  8017cb:	eb 1e                	jmp    8017eb <PAL_BattleSelectAutoTarget+0xeb>
  8017cd:	83 45 fc 01          	addl   $0x1,-0x4(%ebp)
  8017d1:	c7 c2 e0 31 86 00    	mov    $0x8631e0,%edx
  8017d7:	0f b7 92 b0 04 00 00 	movzwl 0x4b0(%edx),%edx
  8017de:	0f b7 d2             	movzwl %dx,%edx
  8017e1:	3b 55 fc             	cmp    -0x4(%ebp),%edx
  8017e4:	7d a4                	jge    80178a <PAL_BattleSelectAutoTarget+0x8a>
  8017e6:	b8 ff ff ff ff       	mov    $0xffffffff,%eax
  8017eb:	c9                   	leave  
  8017ec:	c3                   	ret    

008017ed <PAL_CalcBaseDamage>:
  8017ed:	55                   	push   %ebp
  8017ee:	89 e5                	mov    %esp,%ebp
  8017f0:	83 ec 20             	sub    $0x20,%esp
  8017f3:	e8 3e e9 ff ff       	call   800136 <__x86.get_pc_thunk.ax>
  8017f8:	05 08 98 04 00       	add    $0x49808,%eax
  8017fd:	8b 4d 08             	mov    0x8(%ebp),%ecx
  801800:	8b 55 0c             	mov    0xc(%ebp),%edx
  801803:	66 89 4d ec          	mov    %cx,-0x14(%ebp)
  801807:	66 89 55 e8          	mov    %dx,-0x18(%ebp)
  80180b:	0f b7 55 ec          	movzwl -0x14(%ebp),%edx
  80180f:	66 3b 55 e8          	cmp    -0x18(%ebp),%dx
  801813:	76 40                	jbe    801855 <PAL_CalcBaseDamage+0x68>
  801815:	0f b7 55 ec          	movzwl -0x14(%ebp),%edx
  801819:	01 d2                	add    %edx,%edx
  80181b:	89 55 e4             	mov    %edx,-0x1c(%ebp)
  80181e:	db 45 e4             	fildl  -0x1c(%ebp)
  801821:	0f b7 55 e8          	movzwl -0x18(%ebp),%edx
  801825:	89 55 e4             	mov    %edx,-0x1c(%ebp)
  801828:	db 45 e4             	fildl  -0x1c(%ebp)
  80182b:	dd 80 18 6b ff ff    	fldl   -0x94e8(%eax)
  801831:	de c9                	fmulp  %st,%st(1)
  801833:	de e9                	fsubrp %st,%st(1)
  801835:	dd 80 20 6b ff ff    	fldl   -0x94e0(%eax)
  80183b:	de c1                	faddp  %st,%st(1)
  80183d:	d9 7d ea             	fnstcw -0x16(%ebp)
  801840:	0f b7 45 ea          	movzwl -0x16(%ebp),%eax
  801844:	b4 0c                	mov    $0xc,%ah
  801846:	66 89 45 ee          	mov    %ax,-0x12(%ebp)
  80184a:	d9 6d ee             	fldcw  -0x12(%ebp)
  80184d:	df 5d fe             	fistp  -0x2(%ebp)
  801850:	d9 6d ea             	fldcw  -0x16(%ebp)
  801853:	eb 68                	jmp    8018bd <PAL_CalcBaseDamage+0xd0>
  801855:	0f b7 55 ec          	movzwl -0x14(%ebp),%edx
  801859:	89 55 e4             	mov    %edx,-0x1c(%ebp)
  80185c:	db 45 e4             	fildl  -0x1c(%ebp)
  80185f:	0f b7 55 e8          	movzwl -0x18(%ebp),%edx
  801863:	89 55 e4             	mov    %edx,-0x1c(%ebp)
  801866:	db 45 e4             	fildl  -0x1c(%ebp)
  801869:	dd 80 28 6b ff ff    	fldl   -0x94d8(%eax)
  80186f:	de c9                	fmulp  %st,%st(1)
  801871:	d9 c9                	fxch   %st(1)
  801873:	df e9                	fucomip %st(1),%st
  801875:	dd d8                	fstp   %st(0)
  801877:	76 3e                	jbe    8018b7 <PAL_CalcBaseDamage+0xca>
  801879:	0f b7 55 ec          	movzwl -0x14(%ebp),%edx
  80187d:	89 55 e4             	mov    %edx,-0x1c(%ebp)
  801880:	db 45 e4             	fildl  -0x1c(%ebp)
  801883:	0f b7 55 e8          	movzwl -0x18(%ebp),%edx
  801887:	89 55 e4             	mov    %edx,-0x1c(%ebp)
  80188a:	db 45 e4             	fildl  -0x1c(%ebp)
  80188d:	dd 80 28 6b ff ff    	fldl   -0x94d8(%eax)
  801893:	de c9                	fmulp  %st,%st(1)
  801895:	de e9                	fsubrp %st,%st(1)
  801897:	dd 80 20 6b ff ff    	fldl   -0x94e0(%eax)
  80189d:	de c1                	faddp  %st,%st(1)
  80189f:	d9 7d ea             	fnstcw -0x16(%ebp)
  8018a2:	0f b7 45 ea          	movzwl -0x16(%ebp),%eax
  8018a6:	b4 0c                	mov    $0xc,%ah
  8018a8:	66 89 45 ee          	mov    %ax,-0x12(%ebp)
  8018ac:	d9 6d ee             	fldcw  -0x12(%ebp)
  8018af:	df 5d fe             	fistp  -0x2(%ebp)
  8018b2:	d9 6d ea             	fldcw  -0x16(%ebp)
  8018b5:	eb 06                	jmp    8018bd <PAL_CalcBaseDamage+0xd0>
  8018b7:	66 c7 45 fe 00 00    	movw   $0x0,-0x2(%ebp)
  8018bd:	0f b7 45 fe          	movzwl -0x2(%ebp),%eax
  8018c1:	c9                   	leave  
  8018c2:	c3                   	ret    

008018c3 <PAL_CalcMagicDamage>:
  8018c3:	55                   	push   %ebp
  8018c4:	89 e5                	mov    %esp,%ebp
  8018c6:	56                   	push   %esi
  8018c7:	53                   	push   %ebx
  8018c8:	83 ec 30             	sub    $0x30,%esp
  8018cb:	e8 6a e8 ff ff       	call   80013a <__x86.get_pc_thunk.bx>
  8018d0:	81 c3 30 97 04 00    	add    $0x49730,%ebx
  8018d6:	8b 75 08             	mov    0x8(%ebp),%esi
  8018d9:	8b 4d 0c             	mov    0xc(%ebp),%ecx
  8018dc:	8b 55 14             	mov    0x14(%ebp),%edx
  8018df:	8b 45 18             	mov    0x18(%ebp),%eax
  8018e2:	66 89 75 e4          	mov    %si,-0x1c(%ebp)
  8018e6:	66 89 4d e0          	mov    %cx,-0x20(%ebp)
  8018ea:	66 89 55 dc          	mov    %dx,-0x24(%ebp)
  8018ee:	66 89 45 d8          	mov    %ax,-0x28(%ebp)
  8018f2:	c7 c0 5c 24 86 00    	mov    $0x86245c,%eax
  8018f8:	8b 08                	mov    (%eax),%ecx
  8018fa:	0f b7 55 d8          	movzwl -0x28(%ebp),%edx
  8018fe:	89 d0                	mov    %edx,%eax
  801900:	01 c0                	add    %eax,%eax
  801902:	01 d0                	add    %edx,%eax
  801904:	c1 e0 02             	shl    $0x2,%eax
  801907:	01 c8                	add    %ecx,%eax
  801909:	05 88 09 00 00       	add    $0x988,%eax
  80190e:	0f b7 00             	movzwl (%eax),%eax
  801911:	66 89 45 d8          	mov    %ax,-0x28(%ebp)
  801915:	83 ec 08             	sub    $0x8,%esp
  801918:	d9 83 30 6b ff ff    	flds   -0x94d0(%ebx)
  80191e:	8d 64 24 fc          	lea    -0x4(%esp),%esp
  801922:	d9 1c 24             	fstps  (%esp)
  801925:	d9 83 34 6b ff ff    	flds   -0x94cc(%ebx)
  80192b:	8d 64 24 fc          	lea    -0x4(%esp),%esp
  80192f:	d9 1c 24             	fstps  (%esp)
  801932:	e8 fa 21 02 00       	call   823b31 <RandomFloat>
  801937:	83 c4 10             	add    $0x10,%esp
  80193a:	0f b7 45 e4          	movzwl -0x1c(%ebp),%eax
  80193e:	89 45 d0             	mov    %eax,-0x30(%ebp)
  801941:	db 45 d0             	fildl  -0x30(%ebp)
  801944:	de c9                	fmulp  %st,%st(1)
  801946:	d9 7d da             	fnstcw -0x26(%ebp)
  801949:	0f b7 45 da          	movzwl -0x26(%ebp),%eax
  80194d:	b4 0c                	mov    $0xc,%ah
  80194f:	66 89 45 de          	mov    %ax,-0x22(%ebp)
  801953:	d9 6d de             	fldcw  -0x22(%ebp)
  801956:	db 5d d4             	fistpl -0x2c(%ebp)
  801959:	d9 6d da             	fldcw  -0x26(%ebp)
  80195c:	8b 45 d4             	mov    -0x2c(%ebp),%eax
  80195f:	66 89 45 e4          	mov    %ax,-0x1c(%ebp)
  801963:	0f b7 45 e4          	movzwl -0x1c(%ebp),%eax
  801967:	0f b7 c0             	movzwl %ax,%eax
  80196a:	69 c0 cd cc 00 00    	imul   $0xcccd,%eax,%eax
  801970:	c1 e8 10             	shr    $0x10,%eax
  801973:	66 c1 e8 03          	shr    $0x3,%ax
  801977:	66 89 45 e4          	mov    %ax,-0x1c(%ebp)
  80197b:	0f b7 55 e0          	movzwl -0x20(%ebp),%edx
  80197f:	0f b7 45 e4          	movzwl -0x1c(%ebp),%eax
  801983:	83 ec 08             	sub    $0x8,%esp
  801986:	52                   	push   %edx
  801987:	50                   	push   %eax
  801988:	e8 60 fe ff ff       	call   8017ed <PAL_CalcBaseDamage>
  80198d:	83 c4 10             	add    $0x10,%esp
  801990:	66 89 45 f6          	mov    %ax,-0xa(%ebp)
  801994:	0f b7 45 f6          	movzwl -0xa(%ebp),%eax
  801998:	8d 50 03             	lea    0x3(%eax),%edx
  80199b:	66 85 c0             	test   %ax,%ax
  80199e:	0f 48 c2             	cmovs  %edx,%eax
  8019a1:	66 c1 f8 02          	sar    $0x2,%ax
  8019a5:	66 89 45 f6          	mov    %ax,-0xa(%ebp)
  8019a9:	c7 c0 5c 24 86 00    	mov    $0x86245c,%eax
  8019af:	8b 00                	mov    (%eax),%eax
  8019b1:	8b 80 4c 29 00 00    	mov    0x294c(%eax),%eax
  8019b7:	0f b7 55 d8          	movzwl -0x28(%ebp),%edx
  8019bb:	c1 e2 05             	shl    $0x5,%edx
  8019be:	01 d0                	add    %edx,%eax
  8019c0:	0f b7 50 1a          	movzwl 0x1a(%eax),%edx
  8019c4:	0f b7 45 f6          	movzwl -0xa(%ebp),%eax
  8019c8:	01 d0                	add    %edx,%eax
  8019ca:	66 89 45 f6          	mov    %ax,-0xa(%ebp)
  8019ce:	c7 c0 5c 24 86 00    	mov    $0x86245c,%eax
  8019d4:	8b 00                	mov    (%eax),%eax
  8019d6:	8b 80 4c 29 00 00    	mov    0x294c(%eax),%eax
  8019dc:	0f b7 55 d8          	movzwl -0x28(%ebp),%edx
  8019e0:	c1 e2 05             	shl    $0x5,%edx
  8019e3:	01 d0                	add    %edx,%eax
  8019e5:	0f b7 40 1c          	movzwl 0x1c(%eax),%eax
  8019e9:	66 85 c0             	test   %ax,%ax
  8019ec:	0f 84 15 01 00 00    	je     801b07 <PAL_CalcMagicDamage+0x244>
  8019f2:	c7 c0 5c 24 86 00    	mov    $0x86245c,%eax
  8019f8:	8b 00                	mov    (%eax),%eax
  8019fa:	8b 80 4c 29 00 00    	mov    0x294c(%eax),%eax
  801a00:	0f b7 55 d8          	movzwl -0x28(%ebp),%edx
  801a04:	c1 e2 05             	shl    $0x5,%edx
  801a07:	01 d0                	add    %edx,%eax
  801a09:	0f b7 40 1c          	movzwl 0x1c(%eax),%eax
  801a0d:	66 89 45 f4          	mov    %ax,-0xc(%ebp)
  801a11:	66 83 7d f4 05       	cmpw   $0x5,-0xc(%ebp)
  801a16:	76 1c                	jbe    801a34 <PAL_CalcMagicDamage+0x171>
  801a18:	0f b7 45 dc          	movzwl -0x24(%ebp),%eax
  801a1c:	ba 0a 00 00 00       	mov    $0xa,%edx
  801a21:	29 c2                	sub    %eax,%edx
  801a23:	89 d0                	mov    %edx,%eax
  801a25:	89 c2                	mov    %eax,%edx
  801a27:	0f b7 45 f6          	movzwl -0xa(%ebp),%eax
  801a2b:	0f af c2             	imul   %edx,%eax
  801a2e:	66 89 45 f6          	mov    %ax,-0xa(%ebp)
  801a32:	eb 45                	jmp    801a79 <PAL_CalcMagicDamage+0x1b6>
  801a34:	66 83 7d f4 00       	cmpw   $0x0,-0xc(%ebp)
  801a39:	75 11                	jne    801a4c <PAL_CalcMagicDamage+0x189>
  801a3b:	0f b7 55 f6          	movzwl -0xa(%ebp),%edx
  801a3f:	89 d0                	mov    %edx,%eax
  801a41:	c1 e0 02             	shl    $0x2,%eax
  801a44:	01 d0                	add    %edx,%eax
  801a46:	66 89 45 f6          	mov    %ax,-0xa(%ebp)
  801a4a:	eb 2d                	jmp    801a79 <PAL_CalcMagicDamage+0x1b6>
  801a4c:	0f b7 45 f4          	movzwl -0xc(%ebp),%eax
  801a50:	05 ff ff ff 7f       	add    $0x7fffffff,%eax
  801a55:	8d 14 00             	lea    (%eax,%eax,1),%edx
  801a58:	8b 45 10             	mov    0x10(%ebp),%eax
  801a5b:	01 d0                	add    %edx,%eax
  801a5d:	0f b7 00             	movzwl (%eax),%eax
  801a60:	0f b7 c0             	movzwl %ax,%eax
  801a63:	ba 0a 00 00 00       	mov    $0xa,%edx
  801a68:	29 c2                	sub    %eax,%edx
  801a6a:	89 d0                	mov    %edx,%eax
  801a6c:	89 c2                	mov    %eax,%edx
  801a6e:	0f b7 45 f6          	movzwl -0xa(%ebp),%eax
  801a72:	0f af c2             	imul   %edx,%eax
  801a75:	66 89 45 f6          	mov    %ax,-0xa(%ebp)
  801a79:	0f b7 45 f6          	movzwl -0xa(%ebp),%eax
  801a7d:	0f bf d0             	movswl %ax,%edx
  801a80:	69 d2 67 66 00 00    	imul   $0x6667,%edx,%edx
  801a86:	c1 ea 10             	shr    $0x10,%edx
  801a89:	66 d1 fa             	sar    %dx
  801a8c:	66 c1 f8 0f          	sar    $0xf,%ax
  801a90:	29 c2                	sub    %eax,%edx
  801a92:	89 d0                	mov    %edx,%eax
  801a94:	66 89 45 f6          	mov    %ax,-0xa(%ebp)
  801a98:	66 83 7d f4 05       	cmpw   $0x5,-0xc(%ebp)
  801a9d:	77 68                	ja     801b07 <PAL_CalcMagicDamage+0x244>
  801a9f:	c7 c0 5c 24 86 00    	mov    $0x86245c,%eax
  801aa5:	8b 00                	mov    (%eax),%eax
  801aa7:	8b 88 54 29 00 00    	mov    0x2954(%eax),%ecx
  801aad:	c7 c0 5c 24 86 00    	mov    $0x86245c,%eax
  801ab3:	8b 00                	mov    (%eax),%eax
  801ab5:	0f b7 80 58 44 00 00 	movzwl 0x4458(%eax),%eax
  801abc:	0f b7 d0             	movzwl %ax,%edx
  801abf:	89 d0                	mov    %edx,%eax
  801ac1:	01 c0                	add    %eax,%eax
  801ac3:	01 d0                	add    %edx,%eax
  801ac5:	c1 e0 02             	shl    $0x2,%eax
  801ac8:	01 c8                	add    %ecx,%eax
  801aca:	0f b7 55 f4          	movzwl -0xc(%ebp),%edx
  801ace:	83 ea 01             	sub    $0x1,%edx
  801ad1:	0f b7 44 50 02       	movzwl 0x2(%eax,%edx,2),%eax
  801ad6:	98                   	cwtl   
  801ad7:	83 c0 0a             	add    $0xa,%eax
  801ada:	89 c2                	mov    %eax,%edx
  801adc:	0f b7 45 f6          	movzwl -0xa(%ebp),%eax
  801ae0:	0f af c2             	imul   %edx,%eax
  801ae3:	66 89 45 f6          	mov    %ax,-0xa(%ebp)
  801ae7:	0f b7 45 f6          	movzwl -0xa(%ebp),%eax
  801aeb:	0f bf d0             	movswl %ax,%edx
  801aee:	69 d2 67 66 00 00    	imul   $0x6667,%edx,%edx
  801af4:	c1 ea 10             	shr    $0x10,%edx
  801af7:	66 c1 fa 02          	sar    $0x2,%dx
  801afb:	66 c1 f8 0f          	sar    $0xf,%ax
  801aff:	29 c2                	sub    %eax,%edx
  801b01:	89 d0                	mov    %edx,%eax
  801b03:	66 89 45 f6          	mov    %ax,-0xa(%ebp)
  801b07:	0f b7 45 f6          	movzwl -0xa(%ebp),%eax
  801b0b:	8d 65 f8             	lea    -0x8(%ebp),%esp
  801b0e:	5b                   	pop    %ebx
  801b0f:	5e                   	pop    %esi
  801b10:	5d                   	pop    %ebp
  801b11:	c3                   	ret    

00801b12 <PAL_CalcPhysicalAttackDamage>:
  801b12:	55                   	push   %ebp
  801b13:	89 e5                	mov    %esp,%ebp
  801b15:	83 ec 20             	sub    $0x20,%esp
  801b18:	e8 19 e6 ff ff       	call   800136 <__x86.get_pc_thunk.ax>
  801b1d:	05 e3 94 04 00       	add    $0x494e3,%eax
  801b22:	8b 4d 08             	mov    0x8(%ebp),%ecx
  801b25:	8b 55 0c             	mov    0xc(%ebp),%edx
  801b28:	8b 45 10             	mov    0x10(%ebp),%eax
  801b2b:	66 89 4d ec          	mov    %cx,-0x14(%ebp)
  801b2f:	66 89 55 e8          	mov    %dx,-0x18(%ebp)
  801b33:	66 89 45 e4          	mov    %ax,-0x1c(%ebp)
  801b37:	0f b7 55 e8          	movzwl -0x18(%ebp),%edx
  801b3b:	0f b7 45 ec          	movzwl -0x14(%ebp),%eax
  801b3f:	52                   	push   %edx
  801b40:	50                   	push   %eax
  801b41:	e8 a7 fc ff ff       	call   8017ed <PAL_CalcBaseDamage>
  801b46:	83 c4 08             	add    $0x8,%esp
  801b49:	66 89 45 fe          	mov    %ax,-0x2(%ebp)
  801b4d:	66 83 7d e4 00       	cmpw   $0x0,-0x1c(%ebp)
  801b52:	74 0f                	je     801b63 <PAL_CalcPhysicalAttackDamage+0x51>
  801b54:	0f bf 45 fe          	movswl -0x2(%ebp),%eax
  801b58:	0f b7 4d e4          	movzwl -0x1c(%ebp),%ecx
  801b5c:	99                   	cltd   
  801b5d:	f7 f9                	idiv   %ecx
  801b5f:	66 89 45 fe          	mov    %ax,-0x2(%ebp)
  801b63:	0f b7 45 fe          	movzwl -0x2(%ebp),%eax
  801b67:	c9                   	leave  
  801b68:	c3                   	ret    

00801b69 <PAL_GetEnemyDexterity>:
  801b69:	55                   	push   %ebp
  801b6a:	89 e5                	mov    %esp,%ebp
  801b6c:	53                   	push   %ebx
  801b6d:	83 ec 24             	sub    $0x24,%esp
  801b70:	e8 c5 e5 ff ff       	call   80013a <__x86.get_pc_thunk.bx>
  801b75:	81 c3 8b 94 04 00    	add    $0x4948b,%ebx
  801b7b:	8b 45 08             	mov    0x8(%ebp),%eax
  801b7e:	66 89 45 e4          	mov    %ax,-0x1c(%ebp)
  801b82:	0f b7 45 e4          	movzwl -0x1c(%ebp),%eax
  801b86:	c7 c2 e0 31 86 00    	mov    $0x8631e0,%edx
  801b8c:	69 c0 cc 00 00 00    	imul   $0xcc,%eax,%eax
  801b92:	01 d0                	add    %edx,%eax
  801b94:	05 b4 00 00 00       	add    $0xb4,%eax
  801b99:	0f b7 00             	movzwl (%eax),%eax
  801b9c:	66 85 c0             	test   %ax,%ax
  801b9f:	75 37                	jne    801bd8 <PAL_GetEnemyDexterity+0x6f>
  801ba1:	e8 56 fa ff ff       	call   8015fc <cli>
  801ba6:	83 ec 0c             	sub    $0xc,%esp
  801ba9:	8d 83 a0 68 ff ff    	lea    -0x9760(%ebx),%eax
  801baf:	50                   	push   %eax
  801bb0:	8d 83 f8 69 ff ff    	lea    -0x9608(%ebx),%eax
  801bb6:	50                   	push   %eax
  801bb7:	68 20 01 00 00       	push   $0x120
  801bbc:	8d 83 cd 68 ff ff    	lea    -0x9733(%ebx),%eax
  801bc2:	50                   	push   %eax
  801bc3:	8d 83 ec 68 ff ff    	lea    -0x9714(%ebx),%eax
  801bc9:	50                   	push   %eax
  801bca:	e8 a1 07 03 00       	call   832370 <printf>
  801bcf:	83 c4 20             	add    $0x20,%esp
  801bd2:	b8 01 00 00 00       	mov    $0x1,%eax
  801bd7:	82 0f b7             	orb    $0xb7,(%edi)
  801bda:	45                   	inc    %ebp
  801bdb:	e4 c7                	in     $0xc7,%al
  801bdd:	c2 e0 31             	ret    $0x31e0
  801be0:	86 00                	xchg   %al,(%eax)
  801be2:	69 c0 cc 00 00 00    	imul   $0xcc,%eax,%eax
  801be8:	01 d0                	add    %edx,%eax
  801bea:	05 d2 00 00 00       	add    $0xd2,%eax
  801bef:	0f b7 00             	movzwl (%eax),%eax
  801bf2:	0f b7 c0             	movzwl %ax,%eax
  801bf5:	83 c0 06             	add    $0x6,%eax
  801bf8:	89 c2                	mov    %eax,%edx
  801bfa:	89 d0                	mov    %edx,%eax
  801bfc:	01 c0                	add    %eax,%eax
  801bfe:	01 d0                	add    %edx,%eax
  801c00:	66 89 45 f6          	mov    %ax,-0xa(%ebp)
  801c04:	0f b7 45 e4          	movzwl -0x1c(%ebp),%eax
  801c08:	c7 c2 e0 31 86 00    	mov    $0x8631e0,%edx
  801c0e:	69 c0 cc 00 00 00    	imul   $0xcc,%eax,%eax
  801c14:	01 d0                	add    %edx,%eax
  801c16:	05 e6 00 00 00       	add    $0xe6,%eax
  801c1b:	0f b7 10             	movzwl (%eax),%edx
  801c1e:	0f b7 45 f6          	movzwl -0xa(%ebp),%eax
  801c22:	01 d0                	add    %edx,%eax
  801c24:	66 89 45 f6          	mov    %ax,-0xa(%ebp)
  801c28:	66 83 7d f6 13       	cmpw   $0x13,-0xa(%ebp)
  801c2d:	7f 06                	jg     801c35 <PAL_GetEnemyDexterity+0xcc>
  801c2f:	66 c7 45 f6 14 00    	movw   $0x14,-0xa(%ebp)
  801c35:	0f b7 45 e4          	movzwl -0x1c(%ebp),%eax
  801c39:	c7 c2 e0 31 86 00    	mov    $0x8631e0,%edx
  801c3f:	69 c0 cc 00 00 00    	imul   $0xcc,%eax,%eax
  801c45:	01 d0                	add    %edx,%eax
  801c47:	05 0a 01 00 00       	add    $0x10a,%eax
  801c4c:	0f b7 00             	movzwl (%eax),%eax
  801c4f:	66 85 c0             	test   %ax,%ax
  801c52:	74 31                	je     801c85 <PAL_GetEnemyDexterity+0x11c>
  801c54:	0f b7 55 f6          	movzwl -0xa(%ebp),%edx
  801c58:	89 d0                	mov    %edx,%eax
  801c5a:	01 c0                	add    %eax,%eax
  801c5c:	01 d0                	add    %edx,%eax
  801c5e:	01 c0                	add    %eax,%eax
  801c60:	66 89 45 f6          	mov    %ax,-0xa(%ebp)
  801c64:	0f b7 45 f6          	movzwl -0xa(%ebp),%eax
  801c68:	0f bf d0             	movswl %ax,%edx
  801c6b:	69 d2 67 66 00 00    	imul   $0x6667,%edx,%edx
  801c71:	c1 ea 10             	shr    $0x10,%edx
  801c74:	66 d1 fa             	sar    %dx
  801c77:	66 c1 f8 0f          	sar    $0xf,%ax
  801c7b:	29 c2                	sub    %eax,%edx
  801c7d:	89 d0                	mov    %edx,%eax
  801c7f:	66 89 45 f6          	mov    %ax,-0xa(%ebp)
  801c83:	eb 47                	jmp    801ccc <PAL_GetEnemyDexterity+0x163>
  801c85:	0f b7 45 e4          	movzwl -0x1c(%ebp),%eax
  801c89:	c7 c2 e0 31 86 00    	mov    $0x8631e0,%edx
  801c8f:	69 c0 cc 00 00 00    	imul   $0xcc,%eax,%eax
  801c95:	01 d0                	add    %edx,%eax
  801c97:	05 fe 00 00 00       	add    $0xfe,%eax
  801c9c:	0f b7 00             	movzwl (%eax),%eax
  801c9f:	66 85 c0             	test   %ax,%ax
  801ca2:	74 28                	je     801ccc <PAL_GetEnemyDexterity+0x163>
  801ca4:	0f b7 45 f6          	movzwl -0xa(%ebp),%eax
  801ca8:	01 c0                	add    %eax,%eax
  801caa:	66 89 45 f6          	mov    %ax,-0xa(%ebp)
  801cae:	0f b7 45 f6          	movzwl -0xa(%ebp),%eax
  801cb2:	0f bf d0             	movswl %ax,%edx
  801cb5:	69 d2 56 55 00 00    	imul   $0x5556,%edx,%edx
  801cbb:	c1 ea 10             	shr    $0x10,%edx
  801cbe:	66 c1 f8 0f          	sar    $0xf,%ax
  801cc2:	89 d1                	mov    %edx,%ecx
  801cc4:	29 c1                	sub    %eax,%ecx
  801cc6:	89 c8                	mov    %ecx,%eax
  801cc8:	66 89 45 f6          	mov    %ax,-0xa(%ebp)
  801ccc:	0f b7 45 f6          	movzwl -0xa(%ebp),%eax
  801cd0:	8b 5d fc             	mov    -0x4(%ebp),%ebx
  801cd3:	c9                   	leave  
  801cd4:	c3                   	ret    

00801cd5 <PAL_GetPlayerActualDexterity>:
  801cd5:	55                   	push   %ebp
  801cd6:	89 e5                	mov    %esp,%ebp
  801cd8:	53                   	push   %ebx
  801cd9:	83 ec 24             	sub    $0x24,%esp
  801cdc:	e8 59 e4 ff ff       	call   80013a <__x86.get_pc_thunk.bx>
  801ce1:	81 c3 1f 93 04 00    	add    $0x4931f,%ebx
  801ce7:	8b 45 08             	mov    0x8(%ebp),%eax
  801cea:	66 89 45 e4          	mov    %ax,-0x1c(%ebp)
  801cee:	0f b7 45 e4          	movzwl -0x1c(%ebp),%eax
  801cf2:	83 ec 0c             	sub    $0xc,%esp
  801cf5:	50                   	push   %eax
  801cf6:	e8 d9 69 01 00       	call   8186d4 <PAL_GetPlayerDexterity>
  801cfb:	83 c4 10             	add    $0x10,%esp
  801cfe:	66 89 45 f6          	mov    %ax,-0xa(%ebp)
  801d02:	c7 c0 5c 24 86 00    	mov    $0x86245c,%eax
  801d08:	8b 08                	mov    (%eax),%ecx
  801d0a:	0f b7 55 e4          	movzwl -0x1c(%ebp),%edx
  801d0e:	89 d0                	mov    %edx,%eax
  801d10:	c1 e0 03             	shl    $0x3,%eax
  801d13:	01 d0                	add    %edx,%eax
  801d15:	01 c0                	add    %eax,%eax
  801d17:	01 c8                	add    %ecx,%eax
  801d19:	05 8e 43 00 00       	add    $0x438e,%eax
  801d1e:	0f b7 00             	movzwl (%eax),%eax
  801d21:	66 85 c0             	test   %ax,%ax
  801d24:	74 2a                	je     801d50 <PAL_GetPlayerActualDexterity+0x7b>
  801d26:	0f b7 55 f6          	movzwl -0xa(%ebp),%edx
  801d2a:	89 d0                	mov    %edx,%eax
  801d2c:	01 c0                	add    %eax,%eax
  801d2e:	01 d0                	add    %edx,%eax
  801d30:	01 c0                	add    %eax,%eax
  801d32:	66 89 45 f6          	mov    %ax,-0xa(%ebp)
  801d36:	0f b7 45 f6          	movzwl -0xa(%ebp),%eax
  801d3a:	0f b7 c0             	movzwl %ax,%eax
  801d3d:	69 c0 cd cc 00 00    	imul   $0xcccd,%eax,%eax
  801d43:	c1 e8 10             	shr    $0x10,%eax
  801d46:	66 c1 e8 02          	shr    $0x2,%ax
  801d4a:	66 89 45 f6          	mov    %ax,-0xa(%ebp)
  801d4e:	eb 3f                	jmp    801d8f <PAL_GetPlayerActualDexterity+0xba>
  801d50:	c7 c0 5c 24 86 00    	mov    $0x86245c,%eax
  801d56:	8b 08                	mov    (%eax),%ecx
  801d58:	0f b7 55 e4          	movzwl -0x1c(%ebp),%edx
  801d5c:	89 d0                	mov    %edx,%eax
  801d5e:	c1 e0 03             	shl    $0x3,%eax
  801d61:	01 d0                	add    %edx,%eax
  801d63:	01 c0                	add    %eax,%eax
  801d65:	01 c8                	add    %ecx,%eax
  801d67:	05 82 43 00 00       	add    $0x4382,%eax
  801d6c:	0f b7 00             	movzwl (%eax),%eax
  801d6f:	66 85 c0             	test   %ax,%ax
  801d72:	74 1b                	je     801d8f <PAL_GetPlayerActualDexterity+0xba>
  801d74:	66 d1 65 f6          	shlw   -0xa(%ebp)
  801d78:	0f b7 45 f6          	movzwl -0xa(%ebp),%eax
  801d7c:	0f b7 c0             	movzwl %ax,%eax
  801d7f:	69 c0 ab aa 00 00    	imul   $0xaaab,%eax,%eax
  801d85:	c1 e8 10             	shr    $0x10,%eax
  801d88:	66 d1 e8             	shr    %ax
  801d8b:	66 89 45 f6          	mov    %ax,-0xa(%ebp)
  801d8f:	0f b7 45 e4          	movzwl -0x1c(%ebp),%eax
  801d93:	83 ec 0c             	sub    $0xc,%esp
  801d96:	50                   	push   %eax
  801d97:	e8 04 f9 ff ff       	call   8016a0 <PAL_IsPlayerDying>
  801d9c:	83 c4 10             	add    $0x10,%esp
  801d9f:	85 c0                	test   %eax,%eax
  801da1:	74 1d                	je     801dc0 <PAL_GetPlayerActualDexterity+0xeb>
  801da3:	66 c1 65 f6 02       	shlw   $0x2,-0xa(%ebp)
  801da8:	0f b7 45 f6          	movzwl -0xa(%ebp),%eax
  801dac:	0f b7 c0             	movzwl %ax,%eax
  801daf:	69 c0 cd cc 00 00    	imul   $0xcccd,%eax,%eax
  801db5:	c1 e8 10             	shr    $0x10,%eax
  801db8:	66 c1 e8 02          	shr    $0x2,%ax
  801dbc:	66 89 45 f6          	mov    %ax,-0xa(%ebp)
  801dc0:	0f b7 45 f6          	movzwl -0xa(%ebp),%eax
  801dc4:	8b 5d fc             	mov    -0x4(%ebp),%ebx
  801dc7:	c9                   	leave  
  801dc8:	c3                   	ret    

00801dc9 <PAL_UpdateTimeChargingUnit>:
  801dc9:	55                   	push   %ebp
  801dca:	89 e5                	mov    %esp,%ebp
  801dcc:	53                   	push   %ebx
  801dcd:	83 ec 14             	sub    $0x14,%esp
  801dd0:	e8 65 e3 ff ff       	call   80013a <__x86.get_pc_thunk.bx>
  801dd5:	81 c3 2b 92 04 00    	add    $0x4922b,%ebx
  801ddb:	83 ec 0c             	sub    $0xc,%esp
  801dde:	6a 00                	push   $0x0
  801de0:	e8 ef 68 01 00       	call   8186d4 <PAL_GetPlayerDexterity>
  801de5:	83 c4 10             	add    $0x10,%esp
  801de8:	0f b7 c0             	movzwl %ax,%eax
  801deb:	83 c0 05             	add    $0x5,%eax
  801dee:	89 45 f0             	mov    %eax,-0x10(%ebp)
  801df1:	db 45 f0             	fildl  -0x10(%ebp)
  801df4:	83 ec 08             	sub    $0x8,%esp
  801df7:	d9 ee                	fldz   
  801df9:	8d 64 24 fc          	lea    -0x4(%esp),%esp
  801dfd:	d9 1c 24             	fstps  (%esp)
  801e00:	8d 64 24 fc          	lea    -0x4(%esp),%esp
  801e04:	d9 1c 24             	fstps  (%esp)
  801e07:	e8 1e f8 ff ff       	call   80162a <pow>
  801e0c:	83 c4 10             	add    $0x10,%esp
  801e0f:	d9 5d f0             	fstps  -0x10(%ebp)
  801e12:	8b 55 f0             	mov    -0x10(%ebp),%edx
  801e15:	c7 c0 e0 31 86 00    	mov    $0x8631e0,%eax
  801e1b:	89 90 e0 04 00 00    	mov    %edx,0x4e0(%eax)
  801e21:	c7 c0 e0 31 86 00    	mov    $0x8631e0,%eax
  801e27:	d9 80 e0 04 00 00    	flds   0x4e0(%eax)
  801e2d:	d9 5d f0             	fstps  -0x10(%ebp)
  801e30:	83 ec 0c             	sub    $0xc,%esp
  801e33:	6a 00                	push   $0x0
  801e35:	e8 9a 68 01 00       	call   8186d4 <PAL_GetPlayerDexterity>
  801e3a:	83 c4 10             	add    $0x10,%esp
  801e3d:	0f b7 c0             	movzwl %ax,%eax
  801e40:	89 45 ec             	mov    %eax,-0x14(%ebp)
  801e43:	db 45 ec             	fildl  -0x14(%ebp)
  801e46:	d8 7d f0             	fdivrs -0x10(%ebp)
  801e49:	c7 c0 e0 31 86 00    	mov    $0x8631e0,%eax
  801e4f:	d9 98 e0 04 00 00    	fstps  0x4e0(%eax)
  801e55:	c7 c0 5c 24 86 00    	mov    $0x86245c,%eax
  801e5b:	8b 00                	mov    (%eax),%eax
  801e5d:	0f b6 80 e0 2a 00 00 	movzbl 0x2ae0(%eax),%eax
  801e64:	3c 01                	cmp    $0x1,%al
  801e66:	76 39                	jbe    801ea1 <PAL_UpdateTimeChargingUnit+0xd8>
  801e68:	c7 c0 e0 31 86 00    	mov    $0x8631e0,%eax
  801e6e:	d9 80 e0 04 00 00    	flds   0x4e0(%eax)
  801e74:	c7 c0 5c 24 86 00    	mov    $0x86245c,%eax
  801e7a:	8b 00                	mov    (%eax),%eax
  801e7c:	0f b6 80 e0 2a 00 00 	movzbl 0x2ae0(%eax),%eax
  801e83:	0f b6 c0             	movzbl %al,%eax
  801e86:	83 c0 01             	add    $0x1,%eax
  801e89:	d1 f8                	sar    %eax
  801e8b:	89 45 f0             	mov    %eax,-0x10(%ebp)
  801e8e:	db 45 f0             	fildl  -0x10(%ebp)
  801e91:	de f9                	fdivrp %st,%st(1)
  801e93:	c7 c0 e0 31 86 00    	mov    $0x8631e0,%eax
  801e99:	d9 98 e0 04 00 00    	fstps  0x4e0(%eax)
  801e9f:	eb 46                	jmp    801ee7 <PAL_UpdateTimeChargingUnit+0x11e>
  801ea1:	c7 c0 e0 31 86 00    	mov    $0x8631e0,%eax
  801ea7:	d9 80 e0 04 00 00    	flds   0x4e0(%eax)
  801ead:	d9 83 38 6b ff ff    	flds   -0x94c8(%ebx)
  801eb3:	de f9                	fdivrp %st,%st(1)
  801eb5:	c7 c0 e0 31 86 00    	mov    $0x8631e0,%eax
  801ebb:	d9 98 e0 04 00 00    	fstps  0x4e0(%eax)
  801ec1:	c7 c0 e0 31 86 00    	mov    $0x8631e0,%eax
  801ec7:	d9 80 e0 04 00 00    	flds   0x4e0(%eax)
  801ecd:	dd 83 40 6b ff ff    	fldl   -0x94c0(%ebx)
  801ed3:	de f9                	fdivrp %st,%st(1)
  801ed5:	d9 5d f4             	fstps  -0xc(%ebp)
  801ed8:	d9 45 f4             	flds   -0xc(%ebp)
  801edb:	c7 c0 e0 31 86 00    	mov    $0x8631e0,%eax
  801ee1:	d9 98 e0 04 00 00    	fstps  0x4e0(%eax)
  801ee7:	90                   	nop
  801ee8:	8b 5d fc             	mov    -0x4(%ebp),%ebx
  801eeb:	c9                   	leave  
  801eec:	c3                   	ret    

00801eed <PAL_GetTimeChargingSpeed>:
  801eed:	55                   	push   %ebp
  801eee:	89 e5                	mov    %esp,%ebp
  801ef0:	53                   	push   %ebx
  801ef1:	83 ec 14             	sub    $0x14,%esp
  801ef4:	e8 41 e2 ff ff       	call   80013a <__x86.get_pc_thunk.bx>
  801ef9:	81 c3 07 91 04 00    	add    $0x49107,%ebx
  801eff:	8b 45 08             	mov    0x8(%ebp),%eax
  801f02:	66 89 45 f4          	mov    %ax,-0xc(%ebp)
  801f06:	c7 c0 e0 31 86 00    	mov    $0x8631e0,%eax
  801f0c:	8b 80 e4 04 00 00    	mov    0x4e4(%eax),%eax
  801f12:	83 f8 01             	cmp    $0x1,%eax
  801f15:	75 10                	jne    801f27 <PAL_GetTimeChargingSpeed+0x3a>
  801f17:	c7 c0 e0 31 86 00    	mov    $0x8631e0,%eax
  801f1d:	8b 80 e8 04 00 00    	mov    0x4e8(%eax),%eax
  801f23:	85 c0                	test   %eax,%eax
  801f25:	75 17                	jne    801f3e <PAL_GetTimeChargingSpeed+0x51>
  801f27:	e8 f9 e8 ff ff       	call   800825 <SDL_GetTicks>
  801f2c:	89 c2                	mov    %eax,%edx
  801f2e:	c7 c0 e0 31 86 00    	mov    $0x8631e0,%eax
  801f34:	8b 80 ec 06 00 00    	mov    0x6ec(%eax),%eax
  801f3a:	39 c2                	cmp    %eax,%edx
  801f3c:	73 04                	jae    801f42 <PAL_GetTimeChargingSpeed+0x55>
  801f3e:	d9 ee                	fldz   
  801f40:	eb 36                	jmp    801f78 <PAL_GetTimeChargingSpeed+0x8b>
  801f42:	c7 c0 5c 24 86 00    	mov    $0x86245c,%eax
  801f48:	8b 00                	mov    (%eax),%eax
  801f4a:	8b 80 dc 2a 00 00    	mov    0x2adc(%eax),%eax
  801f50:	85 c0                	test   %eax,%eax
  801f52:	75 0c                	jne    801f60 <PAL_GetTimeChargingSpeed+0x73>
  801f54:	0f b7 45 f4          	movzwl -0xc(%ebp),%eax
  801f58:	66 c1 e8 02          	shr    $0x2,%ax
  801f5c:	66 89 45 f4          	mov    %ax,-0xc(%ebp)
  801f60:	c7 c0 e0 31 86 00    	mov    $0x8631e0,%eax
  801f66:	d9 80 e0 04 00 00    	flds   0x4e0(%eax)
  801f6c:	0f b7 45 f4          	movzwl -0xc(%ebp),%eax
  801f70:	89 45 f0             	mov    %eax,-0x10(%ebp)
  801f73:	db 45 f0             	fildl  -0x10(%ebp)
  801f76:	de c9                	fmulp  %st,%st(1)
  801f78:	83 c4 14             	add    $0x14,%esp
  801f7b:	5b                   	pop    %ebx
  801f7c:	5d                   	pop    %ebp
  801f7d:	c3                   	ret    

00801f7e <PAL_BattleDelay>:
  801f7e:	55                   	push   %ebp
  801f7f:	89 e5                	mov    %esp,%ebp
  801f81:	56                   	push   %esi
  801f82:	53                   	push   %ebx
  801f83:	83 ec 20             	sub    $0x20,%esp
  801f86:	e8 af e1 ff ff       	call   80013a <__x86.get_pc_thunk.bx>
  801f8b:	81 c3 75 90 04 00    	add    $0x49075,%ebx
  801f91:	8b 55 08             	mov    0x8(%ebp),%edx
  801f94:	8b 45 0c             	mov    0xc(%ebp),%eax
  801f97:	66 89 55 e4          	mov    %dx,-0x1c(%ebp)
  801f9b:	66 89 45 e0          	mov    %ax,-0x20(%ebp)
  801f9f:	e8 81 e8 ff ff       	call   800825 <SDL_GetTicks>
  801fa4:	83 c0 28             	add    $0x28,%eax
  801fa7:	89 45 ec             	mov    %eax,-0x14(%ebp)
  801faa:	c7 45 f4 00 00 00 00 	movl   $0x0,-0xc(%ebp)
  801fb1:	e9 e9 02 00 00       	jmp    80229f <PAL_BattleDelay+0x321>
  801fb6:	83 7d 10 00          	cmpl   $0x0,0x10(%ebp)
  801fba:	0f 84 db 01 00 00    	je     80219b <PAL_BattleDelay+0x21d>
  801fc0:	c7 45 f0 00 00 00 00 	movl   $0x0,-0x10(%ebp)
  801fc7:	e9 b6 01 00 00       	jmp    802182 <PAL_BattleDelay+0x204>
  801fcc:	c7 c2 e0 31 86 00    	mov    $0x8631e0,%edx
  801fd2:	8b 45 f0             	mov    -0x10(%ebp),%eax
  801fd5:	69 c0 cc 00 00 00    	imul   $0xcc,%eax,%eax
  801fdb:	01 d0                	add    %edx,%eax
  801fdd:	05 b4 00 00 00       	add    $0xb4,%eax
  801fe2:	0f b7 00             	movzwl (%eax),%eax
  801fe5:	66 85 c0             	test   %ax,%ax
  801fe8:	0f 84 8f 01 00 00    	je     80217d <PAL_BattleDelay+0x1ff>
  801fee:	c7 c2 e0 31 86 00    	mov    $0x8631e0,%edx
  801ff4:	8b 45 f0             	mov    -0x10(%ebp),%eax
  801ff7:	69 c0 cc 00 00 00    	imul   $0xcc,%eax,%eax
  801ffd:	01 d0                	add    %edx,%eax
  801fff:	05 00 01 00 00       	add    $0x100,%eax
  802004:	0f b7 00             	movzwl (%eax),%eax
  802007:	66 85 c0             	test   %ax,%ax
  80200a:	0f 85 6d 01 00 00    	jne    80217d <PAL_BattleDelay+0x1ff>
  802010:	c7 c2 e0 31 86 00    	mov    $0x8631e0,%edx
  802016:	8b 45 f0             	mov    -0x10(%ebp),%eax
  802019:	69 c0 cc 00 00 00    	imul   $0xcc,%eax,%eax
  80201f:	01 d0                	add    %edx,%eax
  802021:	05 00 01 00 00       	add    $0x100,%eax
  802026:	0f b7 00             	movzwl (%eax),%eax
  802029:	66 85 c0             	test   %ax,%ax
  80202c:	0f 85 4b 01 00 00    	jne    80217d <PAL_BattleDelay+0x1ff>
  802032:	c7 c2 e0 31 86 00    	mov    $0x8631e0,%edx
  802038:	8b 45 f0             	mov    -0x10(%ebp),%eax
  80203b:	69 c0 cc 00 00 00    	imul   $0xcc,%eax,%eax
  802041:	01 d0                	add    %edx,%eax
  802043:	05 bc 00 00 00       	add    $0xbc,%eax
  802048:	0f b7 00             	movzwl (%eax),%eax
  80204b:	8d 50 ff             	lea    -0x1(%eax),%edx
  80204e:	c7 c1 e0 31 86 00    	mov    $0x8631e0,%ecx
  802054:	8b 45 f0             	mov    -0x10(%ebp),%eax
  802057:	69 c0 cc 00 00 00    	imul   $0xcc,%eax,%eax
  80205d:	01 c8                	add    %ecx,%eax
  80205f:	05 bc 00 00 00       	add    $0xbc,%eax
  802064:	66 89 10             	mov    %dx,(%eax)
  802067:	c7 c2 e0 31 86 00    	mov    $0x8631e0,%edx
  80206d:	8b 45 f0             	mov    -0x10(%ebp),%eax
  802070:	69 c0 cc 00 00 00    	imul   $0xcc,%eax,%eax
  802076:	01 d0                	add    %edx,%eax
  802078:	05 bc 00 00 00       	add    $0xbc,%eax
  80207d:	0f b7 00             	movzwl (%eax),%eax
  802080:	66 85 c0             	test   %ax,%ax
  802083:	0f 85 a0 00 00 00    	jne    802129 <PAL_BattleDelay+0x1ab>
  802089:	c7 c2 e0 31 86 00    	mov    $0x8631e0,%edx
  80208f:	8b 45 f0             	mov    -0x10(%ebp),%eax
  802092:	69 c0 cc 00 00 00    	imul   $0xcc,%eax,%eax
  802098:	01 d0                	add    %edx,%eax
  80209a:	05 60 01 00 00       	add    $0x160,%eax
  80209f:	0f b7 00             	movzwl (%eax),%eax
  8020a2:	8d 50 01             	lea    0x1(%eax),%edx
  8020a5:	c7 c1 e0 31 86 00    	mov    $0x8631e0,%ecx
  8020ab:	8b 45 f0             	mov    -0x10(%ebp),%eax
  8020ae:	69 c0 cc 00 00 00    	imul   $0xcc,%eax,%eax
  8020b4:	01 c8                	add    %ecx,%eax
  8020b6:	05 60 01 00 00       	add    $0x160,%eax
  8020bb:	66 89 10             	mov    %dx,(%eax)
  8020be:	c7 c0 5c 24 86 00    	mov    $0x86245c,%eax
  8020c4:	8b 00                	mov    (%eax),%eax
  8020c6:	8b 88 b8 25 00 00    	mov    0x25b8(%eax),%ecx
  8020cc:	c7 c0 5c 24 86 00    	mov    $0x86245c,%eax
  8020d2:	8b 30                	mov    (%eax),%esi
  8020d4:	c7 c2 e0 31 86 00    	mov    $0x8631e0,%edx
  8020da:	8b 45 f0             	mov    -0x10(%ebp),%eax
  8020dd:	69 c0 cc 00 00 00    	imul   $0xcc,%eax,%eax
  8020e3:	01 d0                	add    %edx,%eax
  8020e5:	05 b4 00 00 00       	add    $0xb4,%eax
  8020ea:	0f b7 00             	movzwl (%eax),%eax
  8020ed:	0f b7 d0             	movzwl %ax,%edx
  8020f0:	89 d0                	mov    %edx,%eax
  8020f2:	01 c0                	add    %eax,%eax
  8020f4:	01 d0                	add    %edx,%eax
  8020f6:	c1 e0 02             	shl    $0x2,%eax
  8020f9:	01 f0                	add    %esi,%eax
  8020fb:	05 88 09 00 00       	add    $0x988,%eax
  802100:	0f b7 00             	movzwl (%eax),%eax
  802103:	0f b7 c0             	movzwl %ax,%eax
  802106:	6b c0 46             	imul   $0x46,%eax,%eax
  802109:	01 c8                	add    %ecx,%eax
  80210b:	0f b7 40 06          	movzwl 0x6(%eax),%eax
  80210f:	c7 c1 e0 31 86 00    	mov    $0x8631e0,%ecx
  802115:	8b 55 f0             	mov    -0x10(%ebp),%edx
  802118:	69 d2 cc 00 00 00    	imul   $0xcc,%edx,%edx
  80211e:	01 ca                	add    %ecx,%edx
  802120:	81 c2 bc 00 00 00    	add    $0xbc,%edx
  802126:	66 89 02             	mov    %ax,(%edx)
  802129:	c7 c2 e0 31 86 00    	mov    $0x8631e0,%edx
  80212f:	8b 45 f0             	mov    -0x10(%ebp),%eax
  802132:	69 c0 cc 00 00 00    	imul   $0xcc,%eax,%eax
  802138:	01 d0                	add    %edx,%eax
  80213a:	05 60 01 00 00       	add    $0x160,%eax
  80213f:	0f b7 10             	movzwl (%eax),%edx
  802142:	c7 c1 e0 31 86 00    	mov    $0x8631e0,%ecx
  802148:	8b 45 f0             	mov    -0x10(%ebp),%eax
  80214b:	69 c0 cc 00 00 00    	imul   $0xcc,%eax,%eax
  802151:	01 c8                	add    %ecx,%eax
  802153:	05 b6 00 00 00       	add    $0xb6,%eax
  802158:	0f b7 00             	movzwl (%eax),%eax
  80215b:	66 39 c2             	cmp    %ax,%dx
  80215e:	72 1e                	jb     80217e <PAL_BattleDelay+0x200>
  802160:	c7 c2 e0 31 86 00    	mov    $0x8631e0,%edx
  802166:	8b 45 f0             	mov    -0x10(%ebp),%eax
  802169:	69 c0 cc 00 00 00    	imul   $0xcc,%eax,%eax
  80216f:	01 d0                	add    %edx,%eax
  802171:	05 60 01 00 00       	add    $0x160,%eax
  802176:	66 c7 00 00 00       	movw   $0x0,(%eax)
  80217b:	eb 01                	jmp    80217e <PAL_BattleDelay+0x200>
  80217d:	90                   	nop
  80217e:	83 45 f0 01          	addl   $0x1,-0x10(%ebp)
  802182:	c7 c0 e0 31 86 00    	mov    $0x8631e0,%eax
  802188:	0f b7 80 b0 04 00 00 	movzwl 0x4b0(%eax),%eax
  80218f:	0f b7 c0             	movzwl %ax,%eax
  802192:	3b 45 f0             	cmp    -0x10(%ebp),%eax
  802195:	0f 8d 31 fe ff ff    	jge    801fcc <PAL_BattleDelay+0x4e>
  80219b:	e8 99 1a 01 00       	call   813c39 <PAL_ProcessEvent>
  8021a0:	eb 12                	jmp    8021b4 <PAL_BattleDelay+0x236>
  8021a2:	e8 92 1a 01 00       	call   813c39 <PAL_ProcessEvent>
  8021a7:	83 ec 0c             	sub    $0xc,%esp
  8021aa:	6a 01                	push   $0x1
  8021ac:	e8 92 e6 ff ff       	call   800843 <SDL_Delay>
  8021b1:	83 c4 10             	add    $0x10,%esp
  8021b4:	e8 6c e6 ff ff       	call   800825 <SDL_GetTicks>
  8021b9:	3b 45 ec             	cmp    -0x14(%ebp),%eax
  8021bc:	76 e4                	jbe    8021a2 <PAL_BattleDelay+0x224>
  8021be:	e8 62 e6 ff ff       	call   800825 <SDL_GetTicks>
  8021c3:	83 c0 28             	add    $0x28,%eax
  8021c6:	89 45 ec             	mov    %eax,-0x14(%ebp)
  8021c9:	e8 9a a9 00 00       	call   80cb68 <PAL_BattleMakeScene>
  8021ce:	c7 c0 40 24 86 00    	mov    $0x862440,%eax
  8021d4:	8b 10                	mov    (%eax),%edx
  8021d6:	c7 c0 e0 31 86 00    	mov    $0x8631e0,%eax
  8021dc:	8b 80 b4 04 00 00    	mov    0x4b4(%eax),%eax
  8021e2:	6a 00                	push   $0x0
  8021e4:	52                   	push   %edx
  8021e5:	6a 00                	push   $0x0
  8021e7:	50                   	push   %eax
  8021e8:	e8 c3 e9 ff ff       	call   800bb0 <SDL_BlitSurface>
  8021ed:	83 c4 10             	add    $0x10,%esp
  8021f0:	e8 3e a8 02 00       	call   82ca33 <PAL_BattleUIUpdate>
  8021f5:	66 83 7d e0 00       	cmpw   $0x0,-0x20(%ebp)
  8021fa:	0f 84 8e 00 00 00    	je     80228e <PAL_BattleDelay+0x310>
  802200:	66 83 7d e0 1f       	cmpw   $0x1f,-0x20(%ebp)
  802205:	75 29                	jne    802230 <PAL_BattleDelay+0x2b2>
  802207:	0f b7 45 e0          	movzwl -0x20(%ebp),%eax
  80220b:	83 ec 0c             	sub    $0xc,%esp
  80220e:	50                   	push   %eax
  80220f:	e8 46 6a 02 00       	call   828c5a <PAL_GetWord>
  802214:	83 c4 10             	add    $0x10,%esp
  802217:	83 ec 0c             	sub    $0xc,%esp
  80221a:	6a 00                	push   $0x0
  80221c:	6a 01                	push   $0x1
  80221e:	6a 0f                	push   $0xf
  802220:	68 82 00 4b 00       	push   $0x4b0082
  802225:	50                   	push   %eax
  802226:	e8 08 6c 02 00       	call   828e33 <PAL_DrawText>
  80222b:	83 c4 20             	add    $0x20,%esp
  80222e:	eb 5e                	jmp    80228e <PAL_BattleDelay+0x310>
  802230:	0f b7 45 e0          	movzwl -0x20(%ebp),%eax
  802234:	66 85 c0             	test   %ax,%ax
  802237:	79 2e                	jns    802267 <PAL_BattleDelay+0x2e9>
  802239:	0f b7 45 e0          	movzwl -0x20(%ebp),%eax
  80223d:	f7 d8                	neg    %eax
  80223f:	0f b7 c0             	movzwl %ax,%eax
  802242:	83 ec 0c             	sub    $0xc,%esp
  802245:	50                   	push   %eax
  802246:	e8 0f 6a 02 00       	call   828c5a <PAL_GetWord>
  80224b:	83 c4 10             	add    $0x10,%esp
  80224e:	83 ec 0c             	sub    $0xc,%esp
  802251:	6a 00                	push   $0x0
  802253:	6a 01                	push   $0x1
  802255:	6a 2e                	push   $0x2e
  802257:	68 aa 00 2d 00       	push   $0x2d00aa
  80225c:	50                   	push   %eax
  80225d:	e8 d1 6b 02 00       	call   828e33 <PAL_DrawText>
  802262:	83 c4 20             	add    $0x20,%esp
  802265:	eb 27                	jmp    80228e <PAL_BattleDelay+0x310>
  802267:	0f b7 45 e0          	movzwl -0x20(%ebp),%eax
  80226b:	83 ec 0c             	sub    $0xc,%esp
  80226e:	50                   	push   %eax
  80226f:	e8 e6 69 02 00       	call   828c5a <PAL_GetWord>
  802274:	83 c4 10             	add    $0x10,%esp
  802277:	83 ec 0c             	sub    $0xc,%esp
  80227a:	6a 00                	push   $0x0
  80227c:	6a 01                	push   $0x1
  80227e:	6a 0f                	push   $0xf
  802280:	68 d2 00 32 00       	push   $0x3200d2
  802285:	50                   	push   %eax
  802286:	e8 a8 6b 02 00       	call   828e33 <PAL_DrawText>
  80228b:	83 c4 20             	add    $0x20,%esp
  80228e:	83 ec 0c             	sub    $0xc,%esp
  802291:	6a 00                	push   $0x0
  802293:	e8 2b 2d 01 00       	call   814fc3 <VIDEO_UpdateScreen>
  802298:	83 c4 10             	add    $0x10,%esp
  80229b:	83 45 f4 01          	addl   $0x1,-0xc(%ebp)
  80229f:	0f b7 45 e4          	movzwl -0x1c(%ebp),%eax
  8022a3:	3b 45 f4             	cmp    -0xc(%ebp),%eax
  8022a6:	0f 8f 0a fd ff ff    	jg     801fb6 <PAL_BattleDelay+0x38>
  8022ac:	90                   	nop
  8022ad:	8d 65 f8             	lea    -0x8(%ebp),%esp
  8022b0:	5b                   	pop    %ebx
  8022b1:	5e                   	pop    %esi
  8022b2:	5d                   	pop    %ebp
  8022b3:	c3                   	ret    

008022b4 <PAL_BattleBackupStat>:
  8022b4:	55                   	push   %ebp
  8022b5:	89 e5                	mov    %esp,%ebp
  8022b7:	53                   	push   %ebx
  8022b8:	83 ec 10             	sub    $0x10,%esp
  8022bb:	e8 76 de ff ff       	call   800136 <__x86.get_pc_thunk.ax>
  8022c0:	05 40 8d 04 00       	add    $0x48d40,%eax
  8022c5:	c7 45 f8 00 00 00 00 	movl   $0x0,-0x8(%ebp)
  8022cc:	eb 5a                	jmp    802328 <PAL_BattleBackupStat+0x74>
  8022ce:	c7 c1 e0 31 86 00    	mov    $0x8631e0,%ecx
  8022d4:	8b 55 f8             	mov    -0x8(%ebp),%edx
  8022d7:	69 d2 cc 00 00 00    	imul   $0xcc,%edx,%edx
  8022dd:	01 ca                	add    %ecx,%edx
  8022df:	81 c2 b4 00 00 00    	add    $0xb4,%edx
  8022e5:	0f b7 12             	movzwl (%edx),%edx
  8022e8:	66 85 d2             	test   %dx,%dx
  8022eb:	74 36                	je     802323 <PAL_BattleBackupStat+0x6f>
  8022ed:	c7 c1 e0 31 86 00    	mov    $0x8631e0,%ecx
  8022f3:	8b 55 f8             	mov    -0x8(%ebp),%edx
  8022f6:	69 d2 cc 00 00 00    	imul   $0xcc,%edx,%edx
  8022fc:	01 ca                	add    %ecx,%edx
  8022fe:	81 c2 cc 00 00 00    	add    $0xcc,%edx
  802304:	0f b7 12             	movzwl (%edx),%edx
  802307:	c7 c3 e0 31 86 00    	mov    $0x8631e0,%ebx
  80230d:	8b 4d f8             	mov    -0x8(%ebp),%ecx
  802310:	69 c9 cc 00 00 00    	imul   $0xcc,%ecx,%ecx
  802316:	01 d9                	add    %ebx,%ecx
  802318:	81 c1 7a 01 00 00    	add    $0x17a,%ecx
  80231e:	66 89 11             	mov    %dx,(%ecx)
  802321:	eb 01                	jmp    802324 <PAL_BattleBackupStat+0x70>
  802323:	90                   	nop
  802324:	83 45 f8 01          	addl   $0x1,-0x8(%ebp)
  802328:	c7 c2 e0 31 86 00    	mov    $0x8631e0,%edx
  80232e:	0f b7 92 b0 04 00 00 	movzwl 0x4b0(%edx),%edx
  802335:	0f b7 d2             	movzwl %dx,%edx
  802338:	3b 55 f8             	cmp    -0x8(%ebp),%edx
  80233b:	7d 91                	jge    8022ce <PAL_BattleBackupStat+0x1a>
  80233d:	c7 45 f8 00 00 00 00 	movl   $0x0,-0x8(%ebp)
  802344:	eb 7d                	jmp    8023c3 <PAL_BattleBackupStat+0x10f>
  802346:	c7 c2 5c 24 86 00    	mov    $0x86245c,%edx
  80234c:	8b 1a                	mov    (%edx),%ebx
  80234e:	8b 4d f8             	mov    -0x8(%ebp),%ecx
  802351:	89 ca                	mov    %ecx,%edx
  802353:	c1 e2 02             	shl    $0x2,%edx
  802356:	01 ca                	add    %ecx,%edx
  802358:	01 d2                	add    %edx,%edx
  80235a:	01 da                	add    %ebx,%edx
  80235c:	81 c2 f8 43 00 00    	add    $0x43f8,%edx
  802362:	0f b7 12             	movzwl (%edx),%edx
  802365:	66 89 55 f6          	mov    %dx,-0xa(%ebp)
  802369:	c7 c2 5c 24 86 00    	mov    $0x86245c,%edx
  80236f:	8b 12                	mov    (%edx),%edx
  802371:	0f b7 4d f6          	movzwl -0xa(%ebp),%ecx
  802375:	81 c1 10 13 00 00    	add    $0x1310,%ecx
  80237b:	0f b7 54 4a 14       	movzwl 0x14(%edx,%ecx,2),%edx
  802380:	c7 c3 e0 31 86 00    	mov    $0x8631e0,%ebx
  802386:	8b 4d f8             	mov    -0x8(%ebp),%ecx
  802389:	6b c9 3c             	imul   $0x3c,%ecx,%ecx
  80238c:	01 d9                	add    %ebx,%ecx
  80238e:	83 c1 34             	add    $0x34,%ecx
  802391:	66 89 11             	mov    %dx,(%ecx)
  802394:	c7 c2 5c 24 86 00    	mov    $0x86245c,%edx
  80239a:	8b 12                	mov    (%edx),%edx
  80239c:	0f b7 4d f6          	movzwl -0xa(%ebp),%ecx
  8023a0:	81 c1 18 13 00 00    	add    $0x1318,%ecx
  8023a6:	0f b7 54 4a 10       	movzwl 0x10(%edx,%ecx,2),%edx
  8023ab:	c7 c3 e0 31 86 00    	mov    $0x8631e0,%ebx
  8023b1:	8b 4d f8             	mov    -0x8(%ebp),%ecx
  8023b4:	6b c9 3c             	imul   $0x3c,%ecx,%ecx
  8023b7:	01 d9                	add    %ebx,%ecx
  8023b9:	83 c1 36             	add    $0x36,%ecx
  8023bc:	66 89 11             	mov    %dx,(%ecx)
  8023bf:	83 45 f8 01          	addl   $0x1,-0x8(%ebp)
  8023c3:	c7 c2 5c 24 86 00    	mov    $0x86245c,%edx
  8023c9:	8b 12                	mov    (%edx),%edx
  8023cb:	0f b7 92 f6 43 00 00 	movzwl 0x43f6(%edx),%edx
  8023d2:	0f b7 d2             	movzwl %dx,%edx
  8023d5:	3b 55 f8             	cmp    -0x8(%ebp),%edx
  8023d8:	0f 8d 68 ff ff ff    	jge    802346 <PAL_BattleBackupStat+0x92>
  8023de:	90                   	nop
  8023df:	83 c4 10             	add    $0x10,%esp
  8023e2:	5b                   	pop    %ebx
  8023e3:	5d                   	pop    %ebp
  8023e4:	c3                   	ret    

008023e5 <PAL_BattleDisplayStatChange>:
  8023e5:	55                   	push   %ebp
  8023e6:	89 e5                	mov    %esp,%ebp
  8023e8:	53                   	push   %ebx
  8023e9:	83 ec 24             	sub    $0x24,%esp
  8023ec:	e8 49 dd ff ff       	call   80013a <__x86.get_pc_thunk.bx>
  8023f1:	81 c3 0f 8c 04 00    	add    $0x48c0f,%ebx
  8023f7:	c7 45 ec 00 00 00 00 	movl   $0x0,-0x14(%ebp)
  8023fe:	c7 45 f4 00 00 00 00 	movl   $0x0,-0xc(%ebp)
  802405:	e9 50 01 00 00       	jmp    80255a <PAL_BattleDisplayStatChange+0x175>
  80240a:	c7 c2 e0 31 86 00    	mov    $0x8631e0,%edx
  802410:	8b 45 f4             	mov    -0xc(%ebp),%eax
  802413:	69 c0 cc 00 00 00    	imul   $0xcc,%eax,%eax
  802419:	01 d0                	add    %edx,%eax
  80241b:	05 b4 00 00 00       	add    $0xb4,%eax
  802420:	0f b7 00             	movzwl (%eax),%eax
  802423:	66 85 c0             	test   %ax,%ax
  802426:	0f 84 29 01 00 00    	je     802555 <PAL_BattleDisplayStatChange+0x170>
  80242c:	c7 c2 e0 31 86 00    	mov    $0x8631e0,%edx
  802432:	8b 45 f4             	mov    -0xc(%ebp),%eax
  802435:	69 c0 cc 00 00 00    	imul   $0xcc,%eax,%eax
  80243b:	01 d0                	add    %edx,%eax
  80243d:	05 7a 01 00 00       	add    $0x17a,%eax
  802442:	0f b7 10             	movzwl (%eax),%edx
  802445:	c7 c1 e0 31 86 00    	mov    $0x8631e0,%ecx
  80244b:	8b 45 f4             	mov    -0xc(%ebp),%eax
  80244e:	69 c0 cc 00 00 00    	imul   $0xcc,%eax,%eax
  802454:	01 c8                	add    %ecx,%eax
  802456:	05 cc 00 00 00       	add    $0xcc,%eax
  80245b:	0f b7 00             	movzwl (%eax),%eax
  80245e:	66 39 c2             	cmp    %ax,%dx
  802461:	0f 84 ef 00 00 00    	je     802556 <PAL_BattleDisplayStatChange+0x171>
  802467:	c7 c2 e0 31 86 00    	mov    $0x8631e0,%edx
  80246d:	8b 45 f4             	mov    -0xc(%ebp),%eax
  802470:	69 c0 cc 00 00 00    	imul   $0xcc,%eax,%eax
  802476:	01 d0                	add    %edx,%eax
  802478:	05 cc 00 00 00       	add    $0xcc,%eax
  80247d:	0f b7 10             	movzwl (%eax),%edx
  802480:	c7 c1 e0 31 86 00    	mov    $0x8631e0,%ecx
  802486:	8b 45 f4             	mov    -0xc(%ebp),%eax
  802489:	69 c0 cc 00 00 00    	imul   $0xcc,%eax,%eax
  80248f:	01 c8                	add    %ecx,%eax
  802491:	05 7a 01 00 00       	add    $0x17a,%eax
  802496:	0f b7 00             	movzwl (%eax),%eax
  802499:	29 c2                	sub    %eax,%edx
  80249b:	89 d0                	mov    %edx,%eax
  80249d:	66 89 45 ea          	mov    %ax,-0x16(%ebp)
  8024a1:	c7 c2 e0 31 86 00    	mov    $0x8631e0,%edx
  8024a7:	8b 45 f4             	mov    -0xc(%ebp),%eax
  8024aa:	69 c0 cc 00 00 00    	imul   $0xcc,%eax,%eax
  8024b0:	01 d0                	add    %edx,%eax
  8024b2:	05 58 01 00 00       	add    $0x158,%eax
  8024b7:	8b 00                	mov    (%eax),%eax
  8024b9:	98                   	cwtl   
  8024ba:	83 e8 09             	sub    $0x9,%eax
  8024bd:	89 45 e4             	mov    %eax,-0x1c(%ebp)
  8024c0:	c7 c2 e0 31 86 00    	mov    $0x8631e0,%edx
  8024c6:	8b 45 f4             	mov    -0xc(%ebp),%eax
  8024c9:	69 c0 cc 00 00 00    	imul   $0xcc,%eax,%eax
  8024cf:	01 d0                	add    %edx,%eax
  8024d1:	05 58 01 00 00       	add    $0x158,%eax
  8024d6:	8b 00                	mov    (%eax),%eax
  8024d8:	c1 e8 10             	shr    $0x10,%eax
  8024db:	98                   	cwtl   
  8024dc:	83 e8 73             	sub    $0x73,%eax
  8024df:	89 45 f0             	mov    %eax,-0x10(%ebp)
  8024e2:	83 7d f0 09          	cmpl   $0x9,-0x10(%ebp)
  8024e6:	7f 07                	jg     8024ef <PAL_BattleDisplayStatChange+0x10a>
  8024e8:	c7 45 f0 0a 00 00 00 	movl   $0xa,-0x10(%ebp)
  8024ef:	66 83 7d ea 00       	cmpw   $0x0,-0x16(%ebp)
  8024f4:	79 2d                	jns    802523 <PAL_BattleDisplayStatChange+0x13e>
  8024f6:	8b 45 f0             	mov    -0x10(%ebp),%eax
  8024f9:	0f b7 c0             	movzwl %ax,%eax
  8024fc:	c1 e0 10             	shl    $0x10,%eax
  8024ff:	89 c2                	mov    %eax,%edx
  802501:	8b 45 e4             	mov    -0x1c(%ebp),%eax
  802504:	0f b7 c0             	movzwl %ax,%eax
  802507:	09 c2                	or     %eax,%edx
  802509:	0f b7 45 ea          	movzwl -0x16(%ebp),%eax
  80250d:	f7 d8                	neg    %eax
  80250f:	0f b7 c0             	movzwl %ax,%eax
  802512:	83 ec 04             	sub    $0x4,%esp
  802515:	6a 01                	push   $0x1
  802517:	52                   	push   %edx
  802518:	50                   	push   %eax
  802519:	e8 9f c5 02 00       	call   82eabd <PAL_BattleUIShowNum>
  80251e:	83 c4 10             	add    $0x10,%esp
  802521:	eb 29                	jmp    80254c <PAL_BattleDisplayStatChange+0x167>
  802523:	8b 45 f0             	mov    -0x10(%ebp),%eax
  802526:	0f b7 c0             	movzwl %ax,%eax
  802529:	c1 e0 10             	shl    $0x10,%eax
  80252c:	89 c2                	mov    %eax,%edx
  80252e:	8b 45 e4             	mov    -0x1c(%ebp),%eax
  802531:	0f b7 c0             	movzwl %ax,%eax
  802534:	09 c2                	or     %eax,%edx
  802536:	0f b7 45 ea          	movzwl -0x16(%ebp),%eax
  80253a:	0f b7 c0             	movzwl %ax,%eax
  80253d:	83 ec 04             	sub    $0x4,%esp
  802540:	6a 00                	push   $0x0
  802542:	52                   	push   %edx
  802543:	50                   	push   %eax
  802544:	e8 74 c5 02 00       	call   82eabd <PAL_BattleUIShowNum>
  802549:	83 c4 10             	add    $0x10,%esp
  80254c:	c7 45 ec 01 00 00 00 	movl   $0x1,-0x14(%ebp)
  802553:	eb 01                	jmp    802556 <PAL_BattleDisplayStatChange+0x171>
  802555:	90                   	nop
  802556:	83 45 f4 01          	addl   $0x1,-0xc(%ebp)
  80255a:	c7 c0 e0 31 86 00    	mov    $0x8631e0,%eax
  802560:	0f b7 80 b0 04 00 00 	movzwl 0x4b0(%eax),%eax
  802567:	0f b7 c0             	movzwl %ax,%eax
  80256a:	3b 45 f4             	cmp    -0xc(%ebp),%eax
  80256d:	0f 8d 97 fe ff ff    	jge    80240a <PAL_BattleDisplayStatChange+0x25>
  802573:	c7 45 f4 00 00 00 00 	movl   $0x0,-0xc(%ebp)
  80257a:	e9 17 02 00 00       	jmp    802796 <PAL_BattleDisplayStatChange+0x3b1>
  80257f:	c7 c0 5c 24 86 00    	mov    $0x86245c,%eax
  802585:	8b 08                	mov    (%eax),%ecx
  802587:	8b 55 f4             	mov    -0xc(%ebp),%edx
  80258a:	89 d0                	mov    %edx,%eax
  80258c:	c1 e0 02             	shl    $0x2,%eax
  80258f:	01 d0                	add    %edx,%eax
  802591:	01 c0                	add    %eax,%eax
  802593:	01 c8                	add    %ecx,%eax
  802595:	05 f8 43 00 00       	add    $0x43f8,%eax
  80259a:	0f b7 00             	movzwl (%eax),%eax
  80259d:	66 89 45 e2          	mov    %ax,-0x1e(%ebp)
  8025a1:	c7 c2 e0 31 86 00    	mov    $0x8631e0,%edx
  8025a7:	8b 45 f4             	mov    -0xc(%ebp),%eax
  8025aa:	6b c0 3c             	imul   $0x3c,%eax,%eax
  8025ad:	01 d0                	add    %edx,%eax
  8025af:	83 c0 34             	add    $0x34,%eax
  8025b2:	0f b7 10             	movzwl (%eax),%edx
  8025b5:	c7 c0 5c 24 86 00    	mov    $0x86245c,%eax
  8025bb:	8b 00                	mov    (%eax),%eax
  8025bd:	0f b7 4d e2          	movzwl -0x1e(%ebp),%ecx
  8025c1:	81 c1 10 13 00 00    	add    $0x1310,%ecx
  8025c7:	0f b7 44 48 14       	movzwl 0x14(%eax,%ecx,2),%eax
  8025cc:	66 39 c2             	cmp    %ax,%dx
  8025cf:	0f 84 db 00 00 00    	je     8026b0 <PAL_BattleDisplayStatChange+0x2cb>
  8025d5:	c7 c0 5c 24 86 00    	mov    $0x86245c,%eax
  8025db:	8b 00                	mov    (%eax),%eax
  8025dd:	0f b7 55 e2          	movzwl -0x1e(%ebp),%edx
  8025e1:	81 c2 10 13 00 00    	add    $0x1310,%edx
  8025e7:	0f b7 54 50 14       	movzwl 0x14(%eax,%edx,2),%edx
  8025ec:	c7 c1 e0 31 86 00    	mov    $0x8631e0,%ecx
  8025f2:	8b 45 f4             	mov    -0xc(%ebp),%eax
  8025f5:	6b c0 3c             	imul   $0x3c,%eax,%eax
  8025f8:	01 c8                	add    %ecx,%eax
  8025fa:	83 c0 34             	add    $0x34,%eax
  8025fd:	0f b7 00             	movzwl (%eax),%eax
  802600:	29 c2                	sub    %eax,%edx
  802602:	89 d0                	mov    %edx,%eax
  802604:	66 89 45 ea          	mov    %ax,-0x16(%ebp)
  802608:	c7 c2 e0 31 86 00    	mov    $0x8631e0,%edx
  80260e:	8b 45 f4             	mov    -0xc(%ebp),%eax
  802611:	6b c0 3c             	imul   $0x3c,%eax,%eax
  802614:	01 d0                	add    %edx,%eax
  802616:	83 c0 14             	add    $0x14,%eax
  802619:	8b 00                	mov    (%eax),%eax
  80261b:	98                   	cwtl   
  80261c:	83 e8 09             	sub    $0x9,%eax
  80261f:	89 45 e4             	mov    %eax,-0x1c(%ebp)
  802622:	c7 c2 e0 31 86 00    	mov    $0x8631e0,%edx
  802628:	8b 45 f4             	mov    -0xc(%ebp),%eax
  80262b:	6b c0 3c             	imul   $0x3c,%eax,%eax
  80262e:	01 d0                	add    %edx,%eax
  802630:	83 c0 14             	add    $0x14,%eax
  802633:	8b 00                	mov    (%eax),%eax
  802635:	c1 e8 10             	shr    $0x10,%eax
  802638:	98                   	cwtl   
  802639:	83 e8 4b             	sub    $0x4b,%eax
  80263c:	89 45 f0             	mov    %eax,-0x10(%ebp)
  80263f:	83 7d f0 09          	cmpl   $0x9,-0x10(%ebp)
  802643:	7f 07                	jg     80264c <PAL_BattleDisplayStatChange+0x267>
  802645:	c7 45 f0 0a 00 00 00 	movl   $0xa,-0x10(%ebp)
  80264c:	66 83 7d ea 00       	cmpw   $0x0,-0x16(%ebp)
  802651:	79 2d                	jns    802680 <PAL_BattleDisplayStatChange+0x29b>
  802653:	8b 45 f0             	mov    -0x10(%ebp),%eax
  802656:	0f b7 c0             	movzwl %ax,%eax
  802659:	c1 e0 10             	shl    $0x10,%eax
  80265c:	89 c2                	mov    %eax,%edx
  80265e:	8b 45 e4             	mov    -0x1c(%ebp),%eax
  802661:	0f b7 c0             	movzwl %ax,%eax
  802664:	09 c2                	or     %eax,%edx
  802666:	0f b7 45 ea          	movzwl -0x16(%ebp),%eax
  80266a:	f7 d8                	neg    %eax
  80266c:	0f b7 c0             	movzwl %ax,%eax
  80266f:	83 ec 04             	sub    $0x4,%esp
  802672:	6a 01                	push   $0x1
  802674:	52                   	push   %edx
  802675:	50                   	push   %eax
  802676:	e8 42 c4 02 00       	call   82eabd <PAL_BattleUIShowNum>
  80267b:	83 c4 10             	add    $0x10,%esp
  80267e:	eb 29                	jmp    8026a9 <PAL_BattleDisplayStatChange+0x2c4>
  802680:	8b 45 f0             	mov    -0x10(%ebp),%eax
  802683:	0f b7 c0             	movzwl %ax,%eax
  802686:	c1 e0 10             	shl    $0x10,%eax
  802689:	89 c2                	mov    %eax,%edx
  80268b:	8b 45 e4             	mov    -0x1c(%ebp),%eax
  80268e:	0f b7 c0             	movzwl %ax,%eax
  802691:	09 c2                	or     %eax,%edx
  802693:	0f b7 45 ea          	movzwl -0x16(%ebp),%eax
  802697:	0f b7 c0             	movzwl %ax,%eax
  80269a:	83 ec 04             	sub    $0x4,%esp
  80269d:	6a 00                	push   $0x0
  80269f:	52                   	push   %edx
  8026a0:	50                   	push   %eax
  8026a1:	e8 17 c4 02 00       	call   82eabd <PAL_BattleUIShowNum>
  8026a6:	83 c4 10             	add    $0x10,%esp
  8026a9:	c7 45 ec 01 00 00 00 	movl   $0x1,-0x14(%ebp)
  8026b0:	c7 c2 e0 31 86 00    	mov    $0x8631e0,%edx
  8026b6:	8b 45 f4             	mov    -0xc(%ebp),%eax
  8026b9:	6b c0 3c             	imul   $0x3c,%eax,%eax
  8026bc:	01 d0                	add    %edx,%eax
  8026be:	83 c0 36             	add    $0x36,%eax
  8026c1:	0f b7 10             	movzwl (%eax),%edx
  8026c4:	c7 c0 5c 24 86 00    	mov    $0x86245c,%eax
  8026ca:	8b 00                	mov    (%eax),%eax
  8026cc:	0f b7 4d e2          	movzwl -0x1e(%ebp),%ecx
  8026d0:	81 c1 18 13 00 00    	add    $0x1318,%ecx
  8026d6:	0f b7 44 48 10       	movzwl 0x10(%eax,%ecx,2),%eax
  8026db:	66 39 c2             	cmp    %ax,%dx
  8026de:	0f 84 ae 00 00 00    	je     802792 <PAL_BattleDisplayStatChange+0x3ad>
  8026e4:	c7 c0 5c 24 86 00    	mov    $0x86245c,%eax
  8026ea:	8b 00                	mov    (%eax),%eax
  8026ec:	0f b7 55 e2          	movzwl -0x1e(%ebp),%edx
  8026f0:	81 c2 18 13 00 00    	add    $0x1318,%edx
  8026f6:	0f b7 54 50 10       	movzwl 0x10(%eax,%edx,2),%edx
  8026fb:	c7 c1 e0 31 86 00    	mov    $0x8631e0,%ecx
  802701:	8b 45 f4             	mov    -0xc(%ebp),%eax
  802704:	6b c0 3c             	imul   $0x3c,%eax,%eax
  802707:	01 c8                	add    %ecx,%eax
  802709:	83 c0 36             	add    $0x36,%eax
  80270c:	0f b7 00             	movzwl (%eax),%eax
  80270f:	29 c2                	sub    %eax,%edx
  802711:	89 d0                	mov    %edx,%eax
  802713:	66 89 45 ea          	mov    %ax,-0x16(%ebp)
  802717:	c7 c2 e0 31 86 00    	mov    $0x8631e0,%edx
  80271d:	8b 45 f4             	mov    -0xc(%ebp),%eax
  802720:	6b c0 3c             	imul   $0x3c,%eax,%eax
  802723:	01 d0                	add    %edx,%eax
  802725:	83 c0 14             	add    $0x14,%eax
  802728:	8b 00                	mov    (%eax),%eax
  80272a:	98                   	cwtl   
  80272b:	83 e8 09             	sub    $0x9,%eax
  80272e:	89 45 e4             	mov    %eax,-0x1c(%ebp)
  802731:	c7 c2 e0 31 86 00    	mov    $0x8631e0,%edx
  802737:	8b 45 f4             	mov    -0xc(%ebp),%eax
  80273a:	6b c0 3c             	imul   $0x3c,%eax,%eax
  80273d:	01 d0                	add    %edx,%eax
  80273f:	83 c0 14             	add    $0x14,%eax
  802742:	8b 00                	mov    (%eax),%eax
  802744:	c1 e8 10             	shr    $0x10,%eax
  802747:	98                   	cwtl   
  802748:	83 e8 43             	sub    $0x43,%eax
  80274b:	89 45 f0             	mov    %eax,-0x10(%ebp)
  80274e:	83 7d f0 09          	cmpl   $0x9,-0x10(%ebp)
  802752:	7f 07                	jg     80275b <PAL_BattleDisplayStatChange+0x376>
  802754:	c7 45 f0 0a 00 00 00 	movl   $0xa,-0x10(%ebp)
  80275b:	66 83 7d ea 00       	cmpw   $0x0,-0x16(%ebp)
  802760:	7e 29                	jle    80278b <PAL_BattleDisplayStatChange+0x3a6>
  802762:	8b 45 f0             	mov    -0x10(%ebp),%eax
  802765:	0f b7 c0             	movzwl %ax,%eax
  802768:	c1 e0 10             	shl    $0x10,%eax
  80276b:	89 c2                	mov    %eax,%edx
  80276d:	8b 45 e4             	mov    -0x1c(%ebp),%eax
  802770:	0f b7 c0             	movzwl %ax,%eax
  802773:	09 c2                	or     %eax,%edx
  802775:	0f b7 45 ea          	movzwl -0x16(%ebp),%eax
  802779:	0f b7 c0             	movzwl %ax,%eax
  80277c:	83 ec 04             	sub    $0x4,%esp
  80277f:	6a 02                	push   $0x2
  802781:	52                   	push   %edx
  802782:	50                   	push   %eax
  802783:	e8 35 c3 02 00       	call   82eabd <PAL_BattleUIShowNum>
  802788:	83 c4 10             	add    $0x10,%esp
  80278b:	c7 45 ec 01 00 00 00 	movl   $0x1,-0x14(%ebp)
  802792:	83 45 f4 01          	addl   $0x1,-0xc(%ebp)
  802796:	c7 c0 5c 24 86 00    	mov    $0x86245c,%eax
  80279c:	8b 00                	mov    (%eax),%eax
  80279e:	0f b7 80 f6 43 00 00 	movzwl 0x43f6(%eax),%eax
  8027a5:	0f b7 c0             	movzwl %ax,%eax
  8027a8:	3b 45 f4             	cmp    -0xc(%ebp),%eax
  8027ab:	0f 8d ce fd ff ff    	jge    80257f <PAL_BattleDisplayStatChange+0x19a>
  8027b1:	8b 45 ec             	mov    -0x14(%ebp),%eax
  8027b4:	8b 5d fc             	mov    -0x4(%ebp),%ebx
  8027b7:	c9                   	leave  
  8027b8:	c3                   	ret    

008027b9 <PAL_BattlePostActionCheck>:
  8027b9:	55                   	push   %ebp
  8027ba:	89 e5                	mov    %esp,%ebp
  8027bc:	57                   	push   %edi
  8027bd:	56                   	push   %esi
  8027be:	53                   	push   %ebx
  8027bf:	83 ec 3c             	sub    $0x3c,%esp
  8027c2:	e8 73 d9 ff ff       	call   80013a <__x86.get_pc_thunk.bx>
  8027c7:	81 c3 39 88 04 00    	add    $0x48839,%ebx
  8027cd:	c7 45 dc 00 00 00 00 	movl   $0x0,-0x24(%ebp)
  8027d4:	c7 45 d8 00 00 00 00 	movl   $0x0,-0x28(%ebp)
  8027db:	c7 45 e4 00 00 00 00 	movl   $0x0,-0x1c(%ebp)
  8027e2:	e9 0c 01 00 00       	jmp    8028f3 <PAL_BattlePostActionCheck+0x13a>
  8027e7:	c7 c2 e0 31 86 00    	mov    $0x8631e0,%edx
  8027ed:	8b 45 e4             	mov    -0x1c(%ebp),%eax
  8027f0:	69 c0 cc 00 00 00    	imul   $0xcc,%eax,%eax
  8027f6:	01 d0                	add    %edx,%eax
  8027f8:	05 b4 00 00 00       	add    $0xb4,%eax
  8027fd:	0f b7 00             	movzwl (%eax),%eax
  802800:	66 85 c0             	test   %ax,%ax
  802803:	0f 84 e5 00 00 00    	je     8028ee <PAL_BattlePostActionCheck+0x135>
  802809:	c7 c2 e0 31 86 00    	mov    $0x8631e0,%edx
  80280f:	8b 45 e4             	mov    -0x1c(%ebp),%eax
  802812:	69 c0 cc 00 00 00    	imul   $0xcc,%eax,%eax
  802818:	01 d0                	add    %edx,%eax
  80281a:	05 cc 00 00 00       	add    $0xcc,%eax
  80281f:	0f b7 00             	movzwl (%eax),%eax
  802822:	66 85 c0             	test   %ax,%ax
  802825:	0f 8f ba 00 00 00    	jg     8028e5 <PAL_BattlePostActionCheck+0x12c>
  80282b:	c7 c0 e0 31 86 00    	mov    $0x8631e0,%eax
  802831:	8b 90 cc 04 00 00    	mov    0x4cc(%eax),%edx
  802837:	c7 c1 e0 31 86 00    	mov    $0x8631e0,%ecx
  80283d:	8b 45 e4             	mov    -0x1c(%ebp),%eax
  802840:	69 c0 cc 00 00 00    	imul   $0xcc,%eax,%eax
  802846:	01 c8                	add    %ecx,%eax
  802848:	05 ce 00 00 00       	add    $0xce,%eax
  80284d:	0f b7 00             	movzwl (%eax),%eax
  802850:	0f b7 c0             	movzwl %ax,%eax
  802853:	01 c2                	add    %eax,%edx
  802855:	c7 c0 e0 31 86 00    	mov    $0x8631e0,%eax
  80285b:	89 90 cc 04 00 00    	mov    %edx,0x4cc(%eax)
  802861:	c7 c0 e0 31 86 00    	mov    $0x8631e0,%eax
  802867:	8b 90 d0 04 00 00    	mov    0x4d0(%eax),%edx
  80286d:	c7 c1 e0 31 86 00    	mov    $0x8631e0,%ecx
  802873:	8b 45 e4             	mov    -0x1c(%ebp),%eax
  802876:	69 c0 cc 00 00 00    	imul   $0xcc,%eax,%eax
  80287c:	01 c8                	add    %ecx,%eax
  80287e:	05 d0 00 00 00       	add    $0xd0,%eax
  802883:	0f b7 00             	movzwl (%eax),%eax
  802886:	0f b7 c0             	movzwl %ax,%eax
  802889:	01 c2                	add    %eax,%edx
  80288b:	c7 c0 e0 31 86 00    	mov    $0x8631e0,%eax
  802891:	89 90 d0 04 00 00    	mov    %edx,0x4d0(%eax)
  802897:	c7 c2 e0 31 86 00    	mov    $0x8631e0,%edx
  80289d:	8b 45 e4             	mov    -0x1c(%ebp),%eax
  8028a0:	69 c0 cc 00 00 00    	imul   $0xcc,%eax,%eax
  8028a6:	01 d0                	add    %edx,%eax
  8028a8:	05 c8 00 00 00       	add    $0xc8,%eax
  8028ad:	0f b7 00             	movzwl (%eax),%eax
  8028b0:	0f b7 c0             	movzwl %ax,%eax
  8028b3:	83 ec 08             	sub    $0x8,%esp
  8028b6:	6a 00                	push   $0x0
  8028b8:	50                   	push   %eax
  8028b9:	e8 98 35 01 00       	call   815e56 <SOUND_PlayChannel>
  8028be:	83 c4 10             	add    $0x10,%esp
  8028c1:	c7 c2 e0 31 86 00    	mov    $0x8631e0,%edx
  8028c7:	8b 45 e4             	mov    -0x1c(%ebp),%eax
  8028ca:	69 c0 cc 00 00 00    	imul   $0xcc,%eax,%eax
  8028d0:	01 d0                	add    %edx,%eax
  8028d2:	05 b4 00 00 00       	add    $0xb4,%eax
  8028d7:	66 c7 00 00 00       	movw   $0x0,(%eax)
  8028dc:	c7 45 dc 01 00 00 00 	movl   $0x1,-0x24(%ebp)
  8028e3:	eb 0a                	jmp    8028ef <PAL_BattlePostActionCheck+0x136>
  8028e5:	c7 45 d8 01 00 00 00 	movl   $0x1,-0x28(%ebp)
  8028ec:	eb 01                	jmp    8028ef <PAL_BattlePostActionCheck+0x136>
  8028ee:	90                   	nop
  8028ef:	83 45 e4 01          	addl   $0x1,-0x1c(%ebp)
  8028f3:	c7 c0 e0 31 86 00    	mov    $0x8631e0,%eax
  8028f9:	0f b7 80 b0 04 00 00 	movzwl 0x4b0(%eax),%eax
  802900:	0f b7 c0             	movzwl %ax,%eax
  802903:	3b 45 e4             	cmp    -0x1c(%ebp),%eax
  802906:	0f 8d db fe ff ff    	jge    8027e7 <PAL_BattlePostActionCheck+0x2e>
  80290c:	83 7d d8 00          	cmpl   $0x0,-0x28(%ebp)
  802910:	75 20                	jne    802932 <PAL_BattlePostActionCheck+0x179>
  802912:	c7 c0 e0 31 86 00    	mov    $0x8631e0,%eax
  802918:	c7 80 d8 04 00 00 01 	movl   $0x1,0x4d8(%eax)
  80291f:	00 00 00 
  802922:	c7 c0 e0 31 86 00    	mov    $0x8631e0,%eax
  802928:	c7 80 e4 04 00 00 00 	movl   $0x0,0x4e4(%eax)
  80292f:	00 00 00 
  802932:	83 7d 08 00          	cmpl   $0x0,0x8(%ebp)
  802936:	0f 84 79 06 00 00    	je     802fb5 <PAL_BattlePostActionCheck+0x7fc>
  80293c:	c7 c0 5c 24 86 00    	mov    $0x86245c,%eax
  802942:	8b 00                	mov    (%eax),%eax
  802944:	8b 80 dc 2a 00 00    	mov    0x2adc(%eax),%eax
  80294a:	85 c0                	test   %eax,%eax
  80294c:	0f 85 63 06 00 00    	jne    802fb5 <PAL_BattlePostActionCheck+0x7fc>
  802952:	c7 45 e4 00 00 00 00 	movl   $0x0,-0x1c(%ebp)
  802959:	e9 9d 02 00 00       	jmp    802bfb <PAL_BattlePostActionCheck+0x442>
  80295e:	c7 c0 5c 24 86 00    	mov    $0x86245c,%eax
  802964:	8b 08                	mov    (%eax),%ecx
  802966:	8b 55 e4             	mov    -0x1c(%ebp),%edx
  802969:	89 d0                	mov    %edx,%eax
  80296b:	c1 e0 02             	shl    $0x2,%eax
  80296e:	01 d0                	add    %edx,%eax
  802970:	01 c0                	add    %eax,%eax
  802972:	01 c8                	add    %ecx,%eax
  802974:	05 f8 43 00 00       	add    $0x43f8,%eax
  802979:	0f b7 00             	movzwl (%eax),%eax
  80297c:	66 89 45 d6          	mov    %ax,-0x2a(%ebp)
  802980:	c7 c0 5c 24 86 00    	mov    $0x86245c,%eax
  802986:	8b 00                	mov    (%eax),%eax
  802988:	0f b7 55 d6          	movzwl -0x2a(%ebp),%edx
  80298c:	81 c2 10 13 00 00    	add    $0x1310,%edx
  802992:	0f b7 54 50 14       	movzwl 0x14(%eax,%edx,2),%edx
  802997:	c7 c1 e0 31 86 00    	mov    $0x8631e0,%ecx
  80299d:	8b 45 e4             	mov    -0x1c(%ebp),%eax
  8029a0:	6b c0 3c             	imul   $0x3c,%eax,%eax
  8029a3:	01 c8                	add    %ecx,%eax
  8029a5:	83 c0 34             	add    $0x34,%eax
  8029a8:	0f b7 00             	movzwl (%eax),%eax
  8029ab:	66 39 c2             	cmp    %ax,%dx
  8029ae:	0f 83 43 02 00 00    	jae    802bf7 <PAL_BattlePostActionCheck+0x43e>
  8029b4:	c7 c0 5c 24 86 00    	mov    $0x86245c,%eax
  8029ba:	8b 00                	mov    (%eax),%eax
  8029bc:	0f b7 55 d6          	movzwl -0x2a(%ebp),%edx
  8029c0:	81 c2 10 13 00 00    	add    $0x1310,%edx
  8029c6:	0f b7 44 50 14       	movzwl 0x14(%eax,%edx,2),%eax
  8029cb:	66 85 c0             	test   %ax,%ax
  8029ce:	0f 85 23 02 00 00    	jne    802bf7 <PAL_BattlePostActionCheck+0x43e>
  8029d4:	c7 c0 5c 24 86 00    	mov    $0x86245c,%eax
  8029da:	8b 00                	mov    (%eax),%eax
  8029dc:	0f b7 55 d6          	movzwl -0x2a(%ebp),%edx
  8029e0:	81 c2 98 13 00 00    	add    $0x1398,%edx
  8029e6:	0f b7 44 50 0c       	movzwl 0xc(%eax,%edx,2),%eax
  8029eb:	66 89 45 d6          	mov    %ax,-0x2a(%ebp)
  8029ef:	c7 45 e0 00 00 00 00 	movl   $0x0,-0x20(%ebp)
  8029f6:	eb 28                	jmp    802a20 <PAL_BattlePostActionCheck+0x267>
  8029f8:	c7 c0 5c 24 86 00    	mov    $0x86245c,%eax
  8029fe:	8b 08                	mov    (%eax),%ecx
  802a00:	8b 55 e0             	mov    -0x20(%ebp),%edx
  802a03:	89 d0                	mov    %edx,%eax
  802a05:	c1 e0 02             	shl    $0x2,%eax
  802a08:	01 d0                	add    %edx,%eax
  802a0a:	01 c0                	add    %eax,%eax
  802a0c:	01 c8                	add    %ecx,%eax
  802a0e:	05 f8 43 00 00       	add    $0x43f8,%eax
  802a13:	0f b7 00             	movzwl (%eax),%eax
  802a16:	66 3b 45 d6          	cmp    -0x2a(%ebp),%ax
  802a1a:	74 1d                	je     802a39 <PAL_BattlePostActionCheck+0x280>
  802a1c:	83 45 e0 01          	addl   $0x1,-0x20(%ebp)
  802a20:	c7 c0 5c 24 86 00    	mov    $0x86245c,%eax
  802a26:	8b 00                	mov    (%eax),%eax
  802a28:	0f b7 80 f6 43 00 00 	movzwl 0x43f6(%eax),%eax
  802a2f:	0f b7 c0             	movzwl %ax,%eax
  802a32:	3b 45 e0             	cmp    -0x20(%ebp),%eax
  802a35:	7d c1                	jge    8029f8 <PAL_BattlePostActionCheck+0x23f>
  802a37:	eb 01                	jmp    802a3a <PAL_BattlePostActionCheck+0x281>
  802a39:	90                   	nop
  802a3a:	c7 c0 5c 24 86 00    	mov    $0x86245c,%eax
  802a40:	8b 00                	mov    (%eax),%eax
  802a42:	0f b7 55 d6          	movzwl -0x2a(%ebp),%edx
  802a46:	81 c2 10 13 00 00    	add    $0x1310,%edx
  802a4c:	0f b7 44 50 14       	movzwl 0x14(%eax,%edx,2),%eax
  802a51:	66 85 c0             	test   %ax,%ax
  802a54:	0f 84 9d 01 00 00    	je     802bf7 <PAL_BattlePostActionCheck+0x43e>
  802a5a:	c7 c0 5c 24 86 00    	mov    $0x86245c,%eax
  802a60:	8b 08                	mov    (%eax),%ecx
  802a62:	0f b7 55 d6          	movzwl -0x2a(%ebp),%edx
  802a66:	89 d0                	mov    %edx,%eax
  802a68:	c1 e0 03             	shl    $0x3,%eax
  802a6b:	01 d0                	add    %edx,%eax
  802a6d:	01 c0                	add    %eax,%eax
  802a6f:	01 c8                	add    %ecx,%eax
  802a71:	05 84 43 00 00       	add    $0x4384,%eax
  802a76:	0f b7 00             	movzwl (%eax),%eax
  802a79:	66 85 c0             	test   %ax,%ax
  802a7c:	0f 85 75 01 00 00    	jne    802bf7 <PAL_BattlePostActionCheck+0x43e>
  802a82:	c7 c0 5c 24 86 00    	mov    $0x86245c,%eax
  802a88:	8b 08                	mov    (%eax),%ecx
  802a8a:	0f b7 55 d6          	movzwl -0x2a(%ebp),%edx
  802a8e:	89 d0                	mov    %edx,%eax
  802a90:	c1 e0 03             	shl    $0x3,%eax
  802a93:	01 d0                	add    %edx,%eax
  802a95:	01 c0                	add    %eax,%eax
  802a97:	01 c8                	add    %ecx,%eax
  802a99:	05 84 43 00 00       	add    $0x4384,%eax
  802a9e:	0f b7 00             	movzwl (%eax),%eax
  802aa1:	66 85 c0             	test   %ax,%ax
  802aa4:	0f 85 4d 01 00 00    	jne    802bf7 <PAL_BattlePostActionCheck+0x43e>
  802aaa:	c7 c0 5c 24 86 00    	mov    $0x86245c,%eax
  802ab0:	8b 08                	mov    (%eax),%ecx
  802ab2:	0f b7 55 d6          	movzwl -0x2a(%ebp),%edx
  802ab6:	89 d0                	mov    %edx,%eax
  802ab8:	c1 e0 03             	shl    $0x3,%eax
  802abb:	01 d0                	add    %edx,%eax
  802abd:	01 c0                	add    %eax,%eax
  802abf:	01 c8                	add    %ecx,%eax
  802ac1:	05 80 43 00 00       	add    $0x4380,%eax
  802ac6:	0f b7 00             	movzwl (%eax),%eax
  802ac9:	66 85 c0             	test   %ax,%ax
  802acc:	0f 85 25 01 00 00    	jne    802bf7 <PAL_BattlePostActionCheck+0x43e>
  802ad2:	c7 c0 5c 24 86 00    	mov    $0x86245c,%eax
  802ad8:	8b 00                	mov    (%eax),%eax
  802ada:	0f b7 80 f6 43 00 00 	movzwl 0x43f6(%eax),%eax
  802ae1:	0f b7 c0             	movzwl %ax,%eax
  802ae4:	3b 45 e0             	cmp    -0x20(%ebp),%eax
  802ae7:	0f 8c 0a 01 00 00    	jl     802bf7 <PAL_BattlePostActionCheck+0x43e>
  802aed:	c7 c0 5c 24 86 00    	mov    $0x86245c,%eax
  802af3:	8b 00                	mov    (%eax),%eax
  802af5:	0f b7 55 d6          	movzwl -0x2a(%ebp),%edx
  802af9:	81 c2 f0 12 00 00    	add    $0x12f0,%edx
  802aff:	0f b7 44 50 0c       	movzwl 0xc(%eax,%edx,2),%eax
  802b04:	66 89 45 d4          	mov    %ax,-0x2c(%ebp)
  802b08:	c7 c0 5c 24 86 00    	mov    $0x86245c,%eax
  802b0e:	8b 08                	mov    (%eax),%ecx
  802b10:	0f b7 55 d4          	movzwl -0x2c(%ebp),%edx
  802b14:	89 d0                	mov    %edx,%eax
  802b16:	01 c0                	add    %eax,%eax
  802b18:	01 d0                	add    %edx,%eax
  802b1a:	c1 e0 02             	shl    $0x2,%eax
  802b1d:	01 c8                	add    %ecx,%eax
  802b1f:	05 8c 09 00 00       	add    $0x98c,%eax
  802b24:	0f b7 00             	movzwl (%eax),%eax
  802b27:	66 85 c0             	test   %ax,%ax
  802b2a:	0f 84 c7 00 00 00    	je     802bf7 <PAL_BattlePostActionCheck+0x43e>
  802b30:	83 ec 04             	sub    $0x4,%esp
  802b33:	6a 01                	push   $0x1
  802b35:	6a 00                	push   $0x0
  802b37:	6a 0a                	push   $0xa
  802b39:	e8 40 f4 ff ff       	call   801f7e <PAL_BattleDelay>
  802b3e:	83 c4 10             	add    $0x10,%esp
  802b41:	e8 22 a0 00 00       	call   80cb68 <PAL_BattleMakeScene>
  802b46:	c7 c0 40 24 86 00    	mov    $0x862440,%eax
  802b4c:	8b 10                	mov    (%eax),%edx
  802b4e:	c7 c0 e0 31 86 00    	mov    $0x8631e0,%eax
  802b54:	8b 80 b4 04 00 00    	mov    0x4b4(%eax),%eax
  802b5a:	6a 00                	push   $0x0
  802b5c:	52                   	push   %edx
  802b5d:	6a 00                	push   $0x0
  802b5f:	50                   	push   %eax
  802b60:	e8 4b e0 ff ff       	call   800bb0 <SDL_BlitSurface>
  802b65:	83 c4 10             	add    $0x10,%esp
  802b68:	83 ec 0c             	sub    $0xc,%esp
  802b6b:	6a 00                	push   $0x0
  802b6d:	e8 51 24 01 00       	call   814fc3 <VIDEO_UpdateScreen>
  802b72:	83 c4 10             	add    $0x10,%esp
  802b75:	c7 c0 e0 31 86 00    	mov    $0x8631e0,%eax
  802b7b:	c7 80 dc 04 00 00 ea 	movl   $0x3ea,0x4dc(%eax)
  802b82:	03 00 00 
  802b85:	c7 c0 5c 24 86 00    	mov    $0x86245c,%eax
  802b8b:	8b 38                	mov    (%eax),%edi
  802b8d:	0f b7 75 d4          	movzwl -0x2c(%ebp),%esi
  802b91:	0f b7 4d d6          	movzwl -0x2a(%ebp),%ecx
  802b95:	c7 c0 5c 24 86 00    	mov    $0x86245c,%eax
  802b9b:	8b 00                	mov    (%eax),%eax
  802b9d:	89 45 c4             	mov    %eax,-0x3c(%ebp)
  802ba0:	0f b7 55 d4          	movzwl -0x2c(%ebp),%edx
  802ba4:	89 d0                	mov    %edx,%eax
  802ba6:	01 c0                	add    %eax,%eax
  802ba8:	01 d0                	add    %edx,%eax
  802baa:	c1 e0 02             	shl    $0x2,%eax
  802bad:	03 45 c4             	add    -0x3c(%ebp),%eax
  802bb0:	05 8c 09 00 00       	add    $0x98c,%eax
  802bb5:	0f b7 00             	movzwl (%eax),%eax
  802bb8:	0f b7 c0             	movzwl %ax,%eax
  802bbb:	83 ec 08             	sub    $0x8,%esp
  802bbe:	51                   	push   %ecx
  802bbf:	50                   	push   %eax
  802bc0:	e8 22 d9 01 00       	call   8204e7 <PAL_RunTriggerScript>
  802bc5:	83 c4 10             	add    $0x10,%esp
  802bc8:	89 c2                	mov    %eax,%edx
  802bca:	89 f0                	mov    %esi,%eax
  802bcc:	01 c0                	add    %eax,%eax
  802bce:	01 f0                	add    %esi,%eax
  802bd0:	c1 e0 02             	shl    $0x2,%eax
  802bd3:	01 f8                	add    %edi,%eax
  802bd5:	05 8c 09 00 00       	add    $0x98c,%eax
  802bda:	66 89 10             	mov    %dx,(%eax)
  802bdd:	c7 c0 e0 31 86 00    	mov    $0x8631e0,%eax
  802be3:	c7 80 dc 04 00 00 e8 	movl   $0x3e8,0x4dc(%eax)
  802bea:	03 00 00 
  802bed:	e8 d3 0f 01 00       	call   813bc5 <PAL_ClearKeyState>
  802bf2:	e9 be 03 00 00       	jmp    802fb5 <PAL_BattlePostActionCheck+0x7fc>
  802bf7:	83 45 e4 01          	addl   $0x1,-0x1c(%ebp)
  802bfb:	c7 c0 5c 24 86 00    	mov    $0x86245c,%eax
  802c01:	8b 00                	mov    (%eax),%eax
  802c03:	0f b7 80 f6 43 00 00 	movzwl 0x43f6(%eax),%eax
  802c0a:	0f b7 c0             	movzwl %ax,%eax
  802c0d:	3b 45 e4             	cmp    -0x1c(%ebp),%eax
  802c10:	0f 8d 48 fd ff ff    	jge    80295e <PAL_BattlePostActionCheck+0x1a5>
  802c16:	c7 45 e4 00 00 00 00 	movl   $0x0,-0x1c(%ebp)
  802c1d:	e9 75 03 00 00       	jmp    802f97 <PAL_BattlePostActionCheck+0x7de>
  802c22:	c7 c0 5c 24 86 00    	mov    $0x86245c,%eax
  802c28:	8b 08                	mov    (%eax),%ecx
  802c2a:	8b 55 e4             	mov    -0x1c(%ebp),%edx
  802c2d:	89 d0                	mov    %edx,%eax
  802c2f:	c1 e0 02             	shl    $0x2,%eax
  802c32:	01 d0                	add    %edx,%eax
  802c34:	01 c0                	add    %eax,%eax
  802c36:	01 c8                	add    %ecx,%eax
  802c38:	05 f8 43 00 00       	add    $0x43f8,%eax
  802c3d:	0f b7 00             	movzwl (%eax),%eax
  802c40:	66 89 45 d2          	mov    %ax,-0x2e(%ebp)
  802c44:	c7 c0 5c 24 86 00    	mov    $0x86245c,%eax
  802c4a:	8b 08                	mov    (%eax),%ecx
  802c4c:	0f b7 55 d2          	movzwl -0x2e(%ebp),%edx
  802c50:	89 d0                	mov    %edx,%eax
  802c52:	c1 e0 03             	shl    $0x3,%eax
  802c55:	01 d0                	add    %edx,%eax
  802c57:	01 c0                	add    %eax,%eax
  802c59:	01 c8                	add    %ecx,%eax
  802c5b:	05 84 43 00 00       	add    $0x4384,%eax
  802c60:	0f b7 00             	movzwl (%eax),%eax
  802c63:	66 85 c0             	test   %ax,%ax
  802c66:	0f 85 20 03 00 00    	jne    802f8c <PAL_BattlePostActionCheck+0x7d3>
  802c6c:	c7 c0 5c 24 86 00    	mov    $0x86245c,%eax
  802c72:	8b 08                	mov    (%eax),%ecx
  802c74:	0f b7 55 d2          	movzwl -0x2e(%ebp),%edx
  802c78:	89 d0                	mov    %edx,%eax
  802c7a:	c1 e0 03             	shl    $0x3,%eax
  802c7d:	01 d0                	add    %edx,%eax
  802c7f:	01 c0                	add    %eax,%eax
  802c81:	01 c8                	add    %ecx,%eax
  802c83:	05 80 43 00 00       	add    $0x4380,%eax
  802c88:	0f b7 00             	movzwl (%eax),%eax
  802c8b:	66 85 c0             	test   %ax,%ax
  802c8e:	0f 85 f8 02 00 00    	jne    802f8c <PAL_BattlePostActionCheck+0x7d3>
  802c94:	c7 c0 5c 24 86 00    	mov    $0x86245c,%eax
  802c9a:	8b 00                	mov    (%eax),%eax
  802c9c:	0f b7 55 d2          	movzwl -0x2e(%ebp),%edx
  802ca0:	81 c2 10 13 00 00    	add    $0x1310,%edx
  802ca6:	0f b7 54 50 14       	movzwl 0x14(%eax,%edx,2),%edx
  802cab:	c7 c1 e0 31 86 00    	mov    $0x8631e0,%ecx
  802cb1:	8b 45 e4             	mov    -0x1c(%ebp),%eax
  802cb4:	6b c0 3c             	imul   $0x3c,%eax,%eax
  802cb7:	01 c8                	add    %ecx,%eax
  802cb9:	83 c0 34             	add    $0x34,%eax
  802cbc:	0f b7 00             	movzwl (%eax),%eax
  802cbf:	66 39 c2             	cmp    %ax,%dx
  802cc2:	0f 83 cb 02 00 00    	jae    802f93 <PAL_BattlePostActionCheck+0x7da>
  802cc8:	c7 c0 5c 24 86 00    	mov    $0x86245c,%eax
  802cce:	8b 00                	mov    (%eax),%eax
  802cd0:	0f b7 55 d2          	movzwl -0x2e(%ebp),%edx
  802cd4:	81 c2 10 13 00 00    	add    $0x1310,%edx
  802cda:	0f b7 44 50 14       	movzwl 0x14(%eax,%edx,2),%eax
  802cdf:	66 85 c0             	test   %ax,%ax
  802ce2:	0f 84 ab 02 00 00    	je     802f93 <PAL_BattlePostActionCheck+0x7da>
  802ce8:	0f b7 45 d2          	movzwl -0x2e(%ebp),%eax
  802cec:	83 ec 0c             	sub    $0xc,%esp
  802cef:	50                   	push   %eax
  802cf0:	e8 ab e9 ff ff       	call   8016a0 <PAL_IsPlayerDying>
  802cf5:	83 c4 10             	add    $0x10,%esp
  802cf8:	85 c0                	test   %eax,%eax
  802cfa:	0f 84 93 02 00 00    	je     802f93 <PAL_BattlePostActionCheck+0x7da>
  802d00:	c7 c2 e0 31 86 00    	mov    $0x8631e0,%edx
  802d06:	8b 45 e4             	mov    -0x1c(%ebp),%eax
  802d09:	6b c0 3c             	imul   $0x3c,%eax,%eax
  802d0c:	01 d0                	add    %edx,%eax
  802d0e:	83 c0 34             	add    $0x34,%eax
  802d11:	0f b7 10             	movzwl (%eax),%edx
  802d14:	c7 c0 5c 24 86 00    	mov    $0x86245c,%eax
  802d1a:	8b 00                	mov    (%eax),%eax
  802d1c:	0f b7 4d d2          	movzwl -0x2e(%ebp),%ecx
  802d20:	81 c1 08 13 00 00    	add    $0x1308,%ecx
  802d26:	0f b7 44 48 0c       	movzwl 0xc(%eax,%ecx,2),%eax
  802d2b:	0f b7 c0             	movzwl %ax,%eax
  802d2e:	69 c0 cd cc 00 00    	imul   $0xcccd,%eax,%eax
  802d34:	c1 e8 10             	shr    $0x10,%eax
  802d37:	66 c1 e8 02          	shr    $0x2,%ax
  802d3b:	66 39 c2             	cmp    %ax,%dx
  802d3e:	0f 82 4f 02 00 00    	jb     802f93 <PAL_BattlePostActionCheck+0x7da>
  802d44:	c7 c0 5c 24 86 00    	mov    $0x86245c,%eax
  802d4a:	8b 00                	mov    (%eax),%eax
  802d4c:	0f b7 55 d2          	movzwl -0x2e(%ebp),%edx
  802d50:	81 c2 98 13 00 00    	add    $0x1398,%edx
  802d56:	0f b7 44 50 0c       	movzwl 0xc(%eax,%edx,2),%eax
  802d5b:	66 89 45 d0          	mov    %ax,-0x30(%ebp)
  802d5f:	c7 c0 5c 24 86 00    	mov    $0x86245c,%eax
  802d65:	8b 08                	mov    (%eax),%ecx
  802d67:	0f b7 55 d0          	movzwl -0x30(%ebp),%edx
  802d6b:	89 d0                	mov    %edx,%eax
  802d6d:	c1 e0 03             	shl    $0x3,%eax
  802d70:	01 d0                	add    %edx,%eax
  802d72:	01 c0                	add    %eax,%eax
  802d74:	01 c8                	add    %ecx,%eax
  802d76:	05 84 43 00 00       	add    $0x4384,%eax
  802d7b:	0f b7 00             	movzwl (%eax),%eax
  802d7e:	66 85 c0             	test   %ax,%ax
  802d81:	0f 85 08 02 00 00    	jne    802f8f <PAL_BattlePostActionCheck+0x7d6>
  802d87:	c7 c0 5c 24 86 00    	mov    $0x86245c,%eax
  802d8d:	8b 08                	mov    (%eax),%ecx
  802d8f:	0f b7 55 d0          	movzwl -0x30(%ebp),%edx
  802d93:	89 d0                	mov    %edx,%eax
  802d95:	c1 e0 03             	shl    $0x3,%eax
  802d98:	01 d0                	add    %edx,%eax
  802d9a:	01 c0                	add    %eax,%eax
  802d9c:	01 c8                	add    %ecx,%eax
  802d9e:	05 84 43 00 00       	add    $0x4384,%eax
  802da3:	0f b7 00             	movzwl (%eax),%eax
  802da6:	66 85 c0             	test   %ax,%ax
  802da9:	0f 85 e0 01 00 00    	jne    802f8f <PAL_BattlePostActionCheck+0x7d6>
  802daf:	c7 c0 5c 24 86 00    	mov    $0x86245c,%eax
  802db5:	8b 08                	mov    (%eax),%ecx
  802db7:	0f b7 55 d0          	movzwl -0x30(%ebp),%edx
  802dbb:	89 d0                	mov    %edx,%eax
  802dbd:	c1 e0 03             	shl    $0x3,%eax
  802dc0:	01 d0                	add    %edx,%eax
  802dc2:	01 c0                	add    %eax,%eax
  802dc4:	01 c8                	add    %ecx,%eax
  802dc6:	05 80 43 00 00       	add    $0x4380,%eax
  802dcb:	0f b7 00             	movzwl (%eax),%eax
  802dce:	66 85 c0             	test   %ax,%ax
  802dd1:	0f 85 b8 01 00 00    	jne    802f8f <PAL_BattlePostActionCheck+0x7d6>
  802dd7:	c7 c0 5c 24 86 00    	mov    $0x86245c,%eax
  802ddd:	8b 00                	mov    (%eax),%eax
  802ddf:	0f b7 55 d2          	movzwl -0x2e(%ebp),%edx
  802de3:	81 c2 f0 12 00 00    	add    $0x12f0,%edx
  802de9:	0f b7 44 50 0c       	movzwl 0xc(%eax,%edx,2),%eax
  802dee:	66 89 45 ce          	mov    %ax,-0x32(%ebp)
  802df2:	c7 c0 5c 24 86 00    	mov    $0x86245c,%eax
  802df8:	8b 00                	mov    (%eax),%eax
  802dfa:	0f b7 55 d2          	movzwl -0x2e(%ebp),%edx
  802dfe:	81 c2 98 14 00 00    	add    $0x1498,%edx
  802e04:	0f b7 44 50 10       	movzwl 0x10(%eax,%edx,2),%eax
  802e09:	0f b7 c0             	movzwl %ax,%eax
  802e0c:	83 ec 08             	sub    $0x8,%esp
  802e0f:	6a 00                	push   $0x0
  802e11:	50                   	push   %eax
  802e12:	e8 3f 30 01 00       	call   815e56 <SOUND_PlayChannel>
  802e17:	83 c4 10             	add    $0x10,%esp
  802e1a:	c7 45 e0 00 00 00 00 	movl   $0x0,-0x20(%ebp)
  802e21:	eb 28                	jmp    802e4b <PAL_BattlePostActionCheck+0x692>
  802e23:	c7 c0 5c 24 86 00    	mov    $0x86245c,%eax
  802e29:	8b 08                	mov    (%eax),%ecx
  802e2b:	8b 55 e0             	mov    -0x20(%ebp),%edx
  802e2e:	89 d0                	mov    %edx,%eax
  802e30:	c1 e0 02             	shl    $0x2,%eax
  802e33:	01 d0                	add    %edx,%eax
  802e35:	01 c0                	add    %eax,%eax
  802e37:	01 c8                	add    %ecx,%eax
  802e39:	05 f8 43 00 00       	add    $0x43f8,%eax
  802e3e:	0f b7 00             	movzwl (%eax),%eax
  802e41:	66 3b 45 d0          	cmp    -0x30(%ebp),%ax
  802e45:	74 1d                	je     802e64 <PAL_BattlePostActionCheck+0x6ab>
  802e47:	83 45 e0 01          	addl   $0x1,-0x20(%ebp)
  802e4b:	c7 c0 5c 24 86 00    	mov    $0x86245c,%eax
  802e51:	8b 00                	mov    (%eax),%eax
  802e53:	0f b7 80 f6 43 00 00 	movzwl 0x43f6(%eax),%eax
  802e5a:	0f b7 c0             	movzwl %ax,%eax
  802e5d:	3b 45 e0             	cmp    -0x20(%ebp),%eax
  802e60:	7d c1                	jge    802e23 <PAL_BattlePostActionCheck+0x66a>
  802e62:	eb 01                	jmp    802e65 <PAL_BattlePostActionCheck+0x6ac>
  802e64:	90                   	nop
  802e65:	c7 c0 5c 24 86 00    	mov    $0x86245c,%eax
  802e6b:	8b 00                	mov    (%eax),%eax
  802e6d:	0f b7 80 f6 43 00 00 	movzwl 0x43f6(%eax),%eax
  802e74:	0f b7 c0             	movzwl %ax,%eax
  802e77:	3b 45 e0             	cmp    -0x20(%ebp),%eax
  802e7a:	0f 8c 12 01 00 00    	jl     802f92 <PAL_BattlePostActionCheck+0x7d9>
  802e80:	c7 c0 5c 24 86 00    	mov    $0x86245c,%eax
  802e86:	8b 00                	mov    (%eax),%eax
  802e88:	0f b7 55 d0          	movzwl -0x30(%ebp),%edx
  802e8c:	81 c2 10 13 00 00    	add    $0x1310,%edx
  802e92:	0f b7 44 50 14       	movzwl 0x14(%eax,%edx,2),%eax
  802e97:	66 85 c0             	test   %ax,%ax
  802e9a:	0f 84 f2 00 00 00    	je     802f92 <PAL_BattlePostActionCheck+0x7d9>
  802ea0:	c7 c0 5c 24 86 00    	mov    $0x86245c,%eax
  802ea6:	8b 08                	mov    (%eax),%ecx
  802ea8:	0f b7 55 ce          	movzwl -0x32(%ebp),%edx
  802eac:	89 d0                	mov    %edx,%eax
  802eae:	01 c0                	add    %eax,%eax
  802eb0:	01 d0                	add    %edx,%eax
  802eb2:	c1 e0 02             	shl    $0x2,%eax
  802eb5:	01 c8                	add    %ecx,%eax
  802eb7:	05 8e 09 00 00       	add    $0x98e,%eax
  802ebc:	0f b7 00             	movzwl (%eax),%eax
  802ebf:	66 85 c0             	test   %ax,%ax
  802ec2:	0f 84 ec 00 00 00    	je     802fb4 <PAL_BattlePostActionCheck+0x7fb>
  802ec8:	83 ec 04             	sub    $0x4,%esp
  802ecb:	6a 01                	push   $0x1
  802ecd:	6a 00                	push   $0x0
  802ecf:	6a 0a                	push   $0xa
  802ed1:	e8 a8 f0 ff ff       	call   801f7e <PAL_BattleDelay>
  802ed6:	83 c4 10             	add    $0x10,%esp
  802ed9:	e8 8a 9c 00 00       	call   80cb68 <PAL_BattleMakeScene>
  802ede:	c7 c0 40 24 86 00    	mov    $0x862440,%eax
  802ee4:	8b 10                	mov    (%eax),%edx
  802ee6:	c7 c0 e0 31 86 00    	mov    $0x8631e0,%eax
  802eec:	8b 80 b4 04 00 00    	mov    0x4b4(%eax),%eax
  802ef2:	6a 00                	push   $0x0
  802ef4:	52                   	push   %edx
  802ef5:	6a 00                	push   $0x0
  802ef7:	50                   	push   %eax
  802ef8:	e8 b3 dc ff ff       	call   800bb0 <SDL_BlitSurface>
  802efd:	83 c4 10             	add    $0x10,%esp
  802f00:	83 ec 0c             	sub    $0xc,%esp
  802f03:	6a 00                	push   $0x0
  802f05:	e8 b9 20 01 00       	call   814fc3 <VIDEO_UpdateScreen>
  802f0a:	83 c4 10             	add    $0x10,%esp
  802f0d:	c7 c0 e0 31 86 00    	mov    $0x8631e0,%eax
  802f13:	c7 80 dc 04 00 00 ea 	movl   $0x3ea,0x4dc(%eax)
  802f1a:	03 00 00 
  802f1d:	c7 c0 5c 24 86 00    	mov    $0x86245c,%eax
  802f23:	8b 38                	mov    (%eax),%edi
  802f25:	0f b7 75 ce          	movzwl -0x32(%ebp),%esi
  802f29:	0f b7 4d d2          	movzwl -0x2e(%ebp),%ecx
  802f2d:	c7 c0 5c 24 86 00    	mov    $0x86245c,%eax
  802f33:	8b 00                	mov    (%eax),%eax
  802f35:	89 45 c4             	mov    %eax,-0x3c(%ebp)
  802f38:	0f b7 55 ce          	movzwl -0x32(%ebp),%edx
  802f3c:	89 d0                	mov    %edx,%eax
  802f3e:	01 c0                	add    %eax,%eax
  802f40:	01 d0                	add    %edx,%eax
  802f42:	c1 e0 02             	shl    $0x2,%eax
  802f45:	03 45 c4             	add    -0x3c(%ebp),%eax
  802f48:	05 8e 09 00 00       	add    $0x98e,%eax
  802f4d:	0f b7 00             	movzwl (%eax),%eax
  802f50:	0f b7 c0             	movzwl %ax,%eax
  802f53:	83 ec 08             	sub    $0x8,%esp
  802f56:	51                   	push   %ecx
  802f57:	50                   	push   %eax
  802f58:	e8 8a d5 01 00       	call   8204e7 <PAL_RunTriggerScript>
  802f5d:	83 c4 10             	add    $0x10,%esp
  802f60:	89 c2                	mov    %eax,%edx
  802f62:	89 f0                	mov    %esi,%eax
  802f64:	01 c0                	add    %eax,%eax
  802f66:	01 f0                	add    %esi,%eax
  802f68:	c1 e0 02             	shl    $0x2,%eax
  802f6b:	01 f8                	add    %edi,%eax
  802f6d:	05 8e 09 00 00       	add    $0x98e,%eax
  802f72:	66 89 10             	mov    %dx,(%eax)
  802f75:	c7 c0 e0 31 86 00    	mov    $0x8631e0,%eax
  802f7b:	c7 80 dc 04 00 00 e8 	movl   $0x3e8,0x4dc(%eax)
  802f82:	03 00 00 
  802f85:	e8 3b 0c 01 00       	call   813bc5 <PAL_ClearKeyState>
  802f8a:	eb 28                	jmp    802fb4 <PAL_BattlePostActionCheck+0x7fb>
  802f8c:	90                   	nop
  802f8d:	eb 04                	jmp    802f93 <PAL_BattlePostActionCheck+0x7da>
  802f8f:	90                   	nop
  802f90:	eb 01                	jmp    802f93 <PAL_BattlePostActionCheck+0x7da>
  802f92:	90                   	nop
  802f93:	83 45 e4 01          	addl   $0x1,-0x1c(%ebp)
  802f97:	c7 c0 5c 24 86 00    	mov    $0x86245c,%eax
  802f9d:	8b 00                	mov    (%eax),%eax
  802f9f:	0f b7 80 f6 43 00 00 	movzwl 0x43f6(%eax),%eax
  802fa6:	0f b7 c0             	movzwl %ax,%eax
  802fa9:	3b 45 e4             	cmp    -0x1c(%ebp),%eax
  802fac:	0f 8d 70 fc ff ff    	jge    802c22 <PAL_BattlePostActionCheck+0x469>
  802fb2:	eb 01                	jmp    802fb5 <PAL_BattlePostActionCheck+0x7fc>
  802fb4:	90                   	nop
  802fb5:	83 7d dc 00          	cmpl   $0x0,-0x24(%ebp)
  802fb9:	74 0f                	je     802fca <PAL_BattlePostActionCheck+0x811>
  802fbb:	e8 f3 a5 00 00       	call   80d5b3 <PAL_BattleBackupScene>
  802fc0:	e8 a3 9b 00 00       	call   80cb68 <PAL_BattleMakeScene>
  802fc5:	e8 24 a6 00 00       	call   80d5ee <PAL_BattleFadeScene>
  802fca:	c7 c0 e0 31 86 00    	mov    $0x8631e0,%eax
  802fd0:	8b 80 c0 04 00 00    	mov    0x4c0(%eax),%eax
  802fd6:	85 c0                	test   %eax,%eax
  802fd8:	74 5c                	je     803036 <PAL_BattlePostActionCheck+0x87d>
  802fda:	e8 60 00 00 00       	call   80303f <PAL_BattleUpdateFighters>
  802fdf:	83 ec 04             	sub    $0x4,%esp
  802fe2:	6a 00                	push   $0x0
  802fe4:	6a 00                	push   $0x0
  802fe6:	6a 01                	push   $0x1
  802fe8:	e8 91 ef ff ff       	call   801f7e <PAL_BattleDelay>
  802fed:	83 c4 10             	add    $0x10,%esp
  802ff0:	c7 c0 e0 31 86 00    	mov    $0x8631e0,%eax
  802ff6:	8b 80 c0 04 00 00    	mov    0x4c0(%eax),%eax
  802ffc:	83 ec 0c             	sub    $0xc,%esp
  802fff:	50                   	push   %eax
  803000:	e8 6b e9 02 00       	call   831970 <free>
  803005:	83 c4 10             	add    $0x10,%esp
  803008:	c7 c0 e0 31 86 00    	mov    $0x8631e0,%eax
  80300e:	c7 80 c0 04 00 00 00 	movl   $0x0,0x4c0(%eax)
  803015:	00 00 00 
  803018:	c7 c0 e0 31 86 00    	mov    $0x8631e0,%eax
  80301e:	66 c7 80 bc 04 00 00 	movw   $0x0,0x4bc(%eax)
  803025:	00 00 
  803027:	e8 87 a5 00 00       	call   80d5b3 <PAL_BattleBackupScene>
  80302c:	e8 37 9b 00 00       	call   80cb68 <PAL_BattleMakeScene>
  803031:	e8 b8 a5 00 00       	call   80d5ee <PAL_BattleFadeScene>
  803036:	90                   	nop
  803037:	8d 65 f4             	lea    -0xc(%ebp),%esp
  80303a:	5b                   	pop    %ebx
  80303b:	5e                   	pop    %esi
  80303c:	5f                   	pop    %edi
  80303d:	5d                   	pop    %ebp
  80303e:	c3                   	ret    

0080303f <PAL_BattleUpdateFighters>:
  80303f:	55                   	push   %ebp
  803040:	89 e5                	mov    %esp,%ebp
  803042:	56                   	push   %esi
  803043:	53                   	push   %ebx
  803044:	83 ec 10             	sub    $0x10,%esp
  803047:	e8 ee d0 ff ff       	call   80013a <__x86.get_pc_thunk.bx>
  80304c:	81 c3 b4 7f 04 00    	add    $0x47fb4,%ebx
  803052:	c7 45 f4 00 00 00 00 	movl   $0x0,-0xc(%ebp)
  803059:	e9 d3 01 00 00       	jmp    803231 <PAL_BattleUpdateFighters+0x1f2>
  80305e:	c7 c0 5c 24 86 00    	mov    $0x86245c,%eax
  803064:	8b 08                	mov    (%eax),%ecx
  803066:	8b 55 f4             	mov    -0xc(%ebp),%edx
  803069:	89 d0                	mov    %edx,%eax
  80306b:	c1 e0 02             	shl    $0x2,%eax
  80306e:	01 d0                	add    %edx,%eax
  803070:	01 c0                	add    %eax,%eax
  803072:	01 c8                	add    %ecx,%eax
  803074:	05 f8 43 00 00       	add    $0x43f8,%eax
  803079:	0f b7 00             	movzwl (%eax),%eax
  80307c:	66 89 45 f2          	mov    %ax,-0xe(%ebp)
  803080:	c7 c2 e0 31 86 00    	mov    $0x8631e0,%edx
  803086:	8b 45 f4             	mov    -0xc(%ebp),%eax
  803089:	6b c0 3c             	imul   $0x3c,%eax,%eax
  80308c:	01 d0                	add    %edx,%eax
  80308e:	83 c0 18             	add    $0x18,%eax
  803091:	8b 00                	mov    (%eax),%eax
  803093:	c7 c1 e0 31 86 00    	mov    $0x8631e0,%ecx
  803099:	8b 55 f4             	mov    -0xc(%ebp),%edx
  80309c:	6b d2 3c             	imul   $0x3c,%edx,%edx
  80309f:	01 ca                	add    %ecx,%edx
  8030a1:	83 c2 14             	add    $0x14,%edx
  8030a4:	89 02                	mov    %eax,(%edx)
  8030a6:	c7 c2 e0 31 86 00    	mov    $0x8631e0,%edx
  8030ac:	8b 45 f4             	mov    -0xc(%ebp),%eax
  8030af:	6b c0 3c             	imul   $0x3c,%eax,%eax
  8030b2:	01 d0                	add    %edx,%eax
  8030b4:	c7 00 00 00 00 00    	movl   $0x0,(%eax)
  8030ba:	c7 c0 5c 24 86 00    	mov    $0x86245c,%eax
  8030c0:	8b 00                	mov    (%eax),%eax
  8030c2:	0f b7 55 f2          	movzwl -0xe(%ebp),%edx
  8030c6:	81 c2 10 13 00 00    	add    $0x1310,%edx
  8030cc:	0f b7 44 50 14       	movzwl 0x14(%eax,%edx,2),%eax
  8030d1:	66 85 c0             	test   %ax,%ax
  8030d4:	75 5a                	jne    803130 <PAL_BattleUpdateFighters+0xf1>
  8030d6:	c7 c0 5c 24 86 00    	mov    $0x86245c,%eax
  8030dc:	8b 08                	mov    (%eax),%ecx
  8030de:	0f b7 55 f2          	movzwl -0xe(%ebp),%edx
  8030e2:	89 d0                	mov    %edx,%eax
  8030e4:	c1 e0 03             	shl    $0x3,%eax
  8030e7:	01 d0                	add    %edx,%eax
  8030e9:	01 c0                	add    %eax,%eax
  8030eb:	01 c8                	add    %ecx,%eax
  8030ed:	05 88 43 00 00       	add    $0x4388,%eax
  8030f2:	0f b7 00             	movzwl (%eax),%eax
  8030f5:	66 85 c0             	test   %ax,%ax
  8030f8:	75 1b                	jne    803115 <PAL_BattleUpdateFighters+0xd6>
  8030fa:	c7 c2 e0 31 86 00    	mov    $0x8631e0,%edx
  803100:	8b 45 f4             	mov    -0xc(%ebp),%eax
  803103:	6b c0 3c             	imul   $0x3c,%eax,%eax
  803106:	01 d0                	add    %edx,%eax
  803108:	83 c0 1c             	add    $0x1c,%eax
  80310b:	66 c7 00 02 00       	movw   $0x2,(%eax)
  803110:	e9 18 01 00 00       	jmp    80322d <PAL_BattleUpdateFighters+0x1ee>
  803115:	c7 c2 e0 31 86 00    	mov    $0x8631e0,%edx
  80311b:	8b 45 f4             	mov    -0xc(%ebp),%eax
  80311e:	6b c0 3c             	imul   $0x3c,%eax,%eax
  803121:	01 d0                	add    %edx,%eax
  803123:	83 c0 1c             	add    $0x1c,%eax
  803126:	66 c7 00 00 00       	movw   $0x0,(%eax)
  80312b:	e9 fd 00 00 00       	jmp    80322d <PAL_BattleUpdateFighters+0x1ee>
  803130:	c7 c0 5c 24 86 00    	mov    $0x86245c,%eax
  803136:	8b 08                	mov    (%eax),%ecx
  803138:	0f b7 55 f2          	movzwl -0xe(%ebp),%edx
  80313c:	89 d0                	mov    %edx,%eax
  80313e:	c1 e0 03             	shl    $0x3,%eax
  803141:	01 d0                	add    %edx,%eax
  803143:	01 c0                	add    %eax,%eax
  803145:	01 c8                	add    %ecx,%eax
  803147:	05 84 43 00 00       	add    $0x4384,%eax
  80314c:	0f b7 00             	movzwl (%eax),%eax
  80314f:	66 85 c0             	test   %ax,%ax
  803152:	75 11                	jne    803165 <PAL_BattleUpdateFighters+0x126>
  803154:	0f b7 45 f2          	movzwl -0xe(%ebp),%eax
  803158:	50                   	push   %eax
  803159:	e8 42 e5 ff ff       	call   8016a0 <PAL_IsPlayerDying>
  80315e:	83 c4 04             	add    $0x4,%esp
  803161:	85 c0                	test   %eax,%eax
  803163:	74 1b                	je     803180 <PAL_BattleUpdateFighters+0x141>
  803165:	c7 c2 e0 31 86 00    	mov    $0x8631e0,%edx
  80316b:	8b 45 f4             	mov    -0xc(%ebp),%eax
  80316e:	6b c0 3c             	imul   $0x3c,%eax,%eax
  803171:	01 d0                	add    %edx,%eax
  803173:	83 c0 1c             	add    $0x1c,%eax
  803176:	66 c7 00 01 00       	movw   $0x1,(%eax)
  80317b:	e9 ad 00 00 00       	jmp    80322d <PAL_BattleUpdateFighters+0x1ee>
  803180:	c7 c2 e0 31 86 00    	mov    $0x8631e0,%edx
  803186:	8b 45 f4             	mov    -0xc(%ebp),%eax
  803189:	6b c0 3c             	imul   $0x3c,%eax,%eax
  80318c:	01 d0                	add    %edx,%eax
  80318e:	83 c0 20             	add    $0x20,%eax
  803191:	8b 00                	mov    (%eax),%eax
  803193:	83 f8 02             	cmp    $0x2,%eax
  803196:	75 40                	jne    8031d8 <PAL_BattleUpdateFighters+0x199>
  803198:	c7 c2 e0 31 86 00    	mov    $0x8631e0,%edx
  80319e:	8b 45 f4             	mov    -0xc(%ebp),%eax
  8031a1:	6b c0 3c             	imul   $0x3c,%eax,%eax
  8031a4:	01 d0                	add    %edx,%eax
  8031a6:	83 c0 24             	add    $0x24,%eax
  8031a9:	8b 00                	mov    (%eax),%eax
  8031ab:	83 f8 03             	cmp    $0x3,%eax
  8031ae:	75 28                	jne    8031d8 <PAL_BattleUpdateFighters+0x199>
  8031b0:	c7 c0 e0 31 86 00    	mov    $0x8631e0,%eax
  8031b6:	8b 80 d8 04 00 00    	mov    0x4d8(%eax),%eax
  8031bc:	85 c0                	test   %eax,%eax
  8031be:	75 18                	jne    8031d8 <PAL_BattleUpdateFighters+0x199>
  8031c0:	c7 c2 e0 31 86 00    	mov    $0x8631e0,%edx
  8031c6:	8b 45 f4             	mov    -0xc(%ebp),%eax
  8031c9:	6b c0 3c             	imul   $0x3c,%eax,%eax
  8031cc:	01 d0                	add    %edx,%eax
  8031ce:	83 c0 1c             	add    $0x1c,%eax
  8031d1:	66 c7 00 05 00       	movw   $0x5,(%eax)
  8031d6:	eb 55                	jmp    80322d <PAL_BattleUpdateFighters+0x1ee>
  8031d8:	c7 c2 e0 31 86 00    	mov    $0x8631e0,%edx
  8031de:	8b 45 f4             	mov    -0xc(%ebp),%eax
  8031e1:	6b c0 3c             	imul   $0x3c,%eax,%eax
  8031e4:	01 d0                	add    %edx,%eax
  8031e6:	83 c0 30             	add    $0x30,%eax
  8031e9:	8b 00                	mov    (%eax),%eax
  8031eb:	85 c0                	test   %eax,%eax
  8031ed:	74 28                	je     803217 <PAL_BattleUpdateFighters+0x1d8>
  8031ef:	c7 c0 e0 31 86 00    	mov    $0x8631e0,%eax
  8031f5:	8b 80 d8 04 00 00    	mov    0x4d8(%eax),%eax
  8031fb:	85 c0                	test   %eax,%eax
  8031fd:	75 18                	jne    803217 <PAL_BattleUpdateFighters+0x1d8>
  8031ff:	c7 c2 e0 31 86 00    	mov    $0x8631e0,%edx
  803205:	8b 45 f4             	mov    -0xc(%ebp),%eax
  803208:	6b c0 3c             	imul   $0x3c,%eax,%eax
  80320b:	01 d0                	add    %edx,%eax
  80320d:	83 c0 1c             	add    $0x1c,%eax
  803210:	66 c7 00 03 00       	movw   $0x3,(%eax)
  803215:	eb 16                	jmp    80322d <PAL_BattleUpdateFighters+0x1ee>
  803217:	c7 c2 e0 31 86 00    	mov    $0x8631e0,%edx
  80321d:	8b 45 f4             	mov    -0xc(%ebp),%eax
  803220:	6b c0 3c             	imul   $0x3c,%eax,%eax
  803223:	01 d0                	add    %edx,%eax
  803225:	83 c0 1c             	add    $0x1c,%eax
  803228:	66 c7 00 00 00       	movw   $0x0,(%eax)
  80322d:	83 45 f4 01          	addl   $0x1,-0xc(%ebp)
  803231:	c7 c0 5c 24 86 00    	mov    $0x86245c,%eax
  803237:	8b 00                	mov    (%eax),%eax
  803239:	0f b7 80 f6 43 00 00 	movzwl 0x43f6(%eax),%eax
  803240:	0f b7 c0             	movzwl %ax,%eax
  803243:	3b 45 f4             	cmp    -0xc(%ebp),%eax
  803246:	0f 8d 12 fe ff ff    	jge    80305e <PAL_BattleUpdateFighters+0x1f>
  80324c:	c7 45 f4 00 00 00 00 	movl   $0x0,-0xc(%ebp)
  803253:	e9 1b 02 00 00       	jmp    803473 <PAL_BattleUpdateFighters+0x434>
  803258:	c7 c2 e0 31 86 00    	mov    $0x8631e0,%edx
  80325e:	8b 45 f4             	mov    -0xc(%ebp),%eax
  803261:	69 c0 cc 00 00 00    	imul   $0xcc,%eax,%eax
  803267:	01 d0                	add    %edx,%eax
  803269:	05 b4 00 00 00       	add    $0xb4,%eax
  80326e:	0f b7 00             	movzwl (%eax),%eax
  803271:	66 85 c0             	test   %ax,%ax
  803274:	0f 84 f4 01 00 00    	je     80346e <PAL_BattleUpdateFighters+0x42f>
  80327a:	c7 c2 e0 31 86 00    	mov    $0x8631e0,%edx
  803280:	8b 45 f4             	mov    -0xc(%ebp),%eax
  803283:	69 c0 cc 00 00 00    	imul   $0xcc,%eax,%eax
  803289:	01 d0                	add    %edx,%eax
  80328b:	05 5c 01 00 00       	add    $0x15c,%eax
  803290:	8b 00                	mov    (%eax),%eax
  803292:	c7 c1 e0 31 86 00    	mov    $0x8631e0,%ecx
  803298:	8b 55 f4             	mov    -0xc(%ebp),%edx
  80329b:	69 d2 cc 00 00 00    	imul   $0xcc,%edx,%edx
  8032a1:	01 ca                	add    %ecx,%edx
  8032a3:	81 c2 58 01 00 00    	add    $0x158,%edx
  8032a9:	89 02                	mov    %eax,(%edx)
  8032ab:	c7 c2 e0 31 86 00    	mov    $0x8631e0,%edx
  8032b1:	8b 45 f4             	mov    -0xc(%ebp),%eax
  8032b4:	69 c0 cc 00 00 00    	imul   $0xcc,%eax,%eax
  8032ba:	01 d0                	add    %edx,%eax
  8032bc:	05 7c 01 00 00       	add    $0x17c,%eax
  8032c1:	c7 00 00 00 00 00    	movl   $0x0,(%eax)
  8032c7:	c7 c2 e0 31 86 00    	mov    $0x8631e0,%edx
  8032cd:	8b 45 f4             	mov    -0xc(%ebp),%eax
  8032d0:	69 c0 cc 00 00 00    	imul   $0xcc,%eax,%eax
  8032d6:	01 d0                	add    %edx,%eax
  8032d8:	05 00 01 00 00       	add    $0x100,%eax
  8032dd:	0f b7 00             	movzwl (%eax),%eax
  8032e0:	66 85 c0             	test   %ax,%ax
  8032e3:	75 1e                	jne    803303 <PAL_BattleUpdateFighters+0x2c4>
  8032e5:	c7 c2 e0 31 86 00    	mov    $0x8631e0,%edx
  8032eb:	8b 45 f4             	mov    -0xc(%ebp),%eax
  8032ee:	69 c0 cc 00 00 00    	imul   $0xcc,%eax,%eax
  8032f4:	01 d0                	add    %edx,%eax
  8032f6:	05 00 01 00 00       	add    $0x100,%eax
  8032fb:	0f b7 00             	movzwl (%eax),%eax
  8032fe:	66 85 c0             	test   %ax,%ax
  803301:	74 20                	je     803323 <PAL_BattleUpdateFighters+0x2e4>
  803303:	c7 c2 e0 31 86 00    	mov    $0x8631e0,%edx
  803309:	8b 45 f4             	mov    -0xc(%ebp),%eax
  80330c:	69 c0 cc 00 00 00    	imul   $0xcc,%eax,%eax
  803312:	01 d0                	add    %edx,%eax
  803314:	05 60 01 00 00       	add    $0x160,%eax
  803319:	66 c7 00 00 00       	movw   $0x0,(%eax)
  80331e:	e9 4c 01 00 00       	jmp    80346f <PAL_BattleUpdateFighters+0x430>
  803323:	c7 c2 e0 31 86 00    	mov    $0x8631e0,%edx
  803329:	8b 45 f4             	mov    -0xc(%ebp),%eax
  80332c:	69 c0 cc 00 00 00    	imul   $0xcc,%eax,%eax
  803332:	01 d0                	add    %edx,%eax
  803334:	05 bc 00 00 00       	add    $0xbc,%eax
  803339:	0f b7 00             	movzwl (%eax),%eax
  80333c:	8d 50 ff             	lea    -0x1(%eax),%edx
  80333f:	c7 c1 e0 31 86 00    	mov    $0x8631e0,%ecx
  803345:	8b 45 f4             	mov    -0xc(%ebp),%eax
  803348:	69 c0 cc 00 00 00    	imul   $0xcc,%eax,%eax
  80334e:	01 c8                	add    %ecx,%eax
  803350:	05 bc 00 00 00       	add    $0xbc,%eax
  803355:	66 89 10             	mov    %dx,(%eax)
  803358:	c7 c2 e0 31 86 00    	mov    $0x8631e0,%edx
  80335e:	8b 45 f4             	mov    -0xc(%ebp),%eax
  803361:	69 c0 cc 00 00 00    	imul   $0xcc,%eax,%eax
  803367:	01 d0                	add    %edx,%eax
  803369:	05 bc 00 00 00       	add    $0xbc,%eax
  80336e:	0f b7 00             	movzwl (%eax),%eax
  803371:	66 85 c0             	test   %ax,%ax
  803374:	0f 85 a0 00 00 00    	jne    80341a <PAL_BattleUpdateFighters+0x3db>
  80337a:	c7 c2 e0 31 86 00    	mov    $0x8631e0,%edx
  803380:	8b 45 f4             	mov    -0xc(%ebp),%eax
  803383:	69 c0 cc 00 00 00    	imul   $0xcc,%eax,%eax
  803389:	01 d0                	add    %edx,%eax
  80338b:	05 60 01 00 00       	add    $0x160,%eax
  803390:	0f b7 00             	movzwl (%eax),%eax
  803393:	8d 50 01             	lea    0x1(%eax),%edx
  803396:	c7 c1 e0 31 86 00    	mov    $0x8631e0,%ecx
  80339c:	8b 45 f4             	mov    -0xc(%ebp),%eax
  80339f:	69 c0 cc 00 00 00    	imul   $0xcc,%eax,%eax
  8033a5:	01 c8                	add    %ecx,%eax
  8033a7:	05 60 01 00 00       	add    $0x160,%eax
  8033ac:	66 89 10             	mov    %dx,(%eax)
  8033af:	c7 c0 5c 24 86 00    	mov    $0x86245c,%eax
  8033b5:	8b 00                	mov    (%eax),%eax
  8033b7:	8b 88 b8 25 00 00    	mov    0x25b8(%eax),%ecx
  8033bd:	c7 c0 5c 24 86 00    	mov    $0x86245c,%eax
  8033c3:	8b 30                	mov    (%eax),%esi
  8033c5:	c7 c2 e0 31 86 00    	mov    $0x8631e0,%edx
  8033cb:	8b 45 f4             	mov    -0xc(%ebp),%eax
  8033ce:	69 c0 cc 00 00 00    	imul   $0xcc,%eax,%eax
  8033d4:	01 d0                	add    %edx,%eax
  8033d6:	05 b4 00 00 00       	add    $0xb4,%eax
  8033db:	0f b7 00             	movzwl (%eax),%eax
  8033de:	0f b7 d0             	movzwl %ax,%edx
  8033e1:	89 d0                	mov    %edx,%eax
  8033e3:	01 c0                	add    %eax,%eax
  8033e5:	01 d0                	add    %edx,%eax
  8033e7:	c1 e0 02             	shl    $0x2,%eax
  8033ea:	01 f0                	add    %esi,%eax
  8033ec:	05 88 09 00 00       	add    $0x988,%eax
  8033f1:	0f b7 00             	movzwl (%eax),%eax
  8033f4:	0f b7 c0             	movzwl %ax,%eax
  8033f7:	6b c0 46             	imul   $0x46,%eax,%eax
  8033fa:	01 c8                	add    %ecx,%eax
  8033fc:	0f b7 40 06          	movzwl 0x6(%eax),%eax
  803400:	c7 c1 e0 31 86 00    	mov    $0x8631e0,%ecx
  803406:	8b 55 f4             	mov    -0xc(%ebp),%edx
  803409:	69 d2 cc 00 00 00    	imul   $0xcc,%edx,%edx
  80340f:	01 ca                	add    %ecx,%edx
  803411:	81 c2 bc 00 00 00    	add    $0xbc,%edx
  803417:	66 89 02             	mov    %ax,(%edx)
  80341a:	c7 c2 e0 31 86 00    	mov    $0x8631e0,%edx
  803420:	8b 45 f4             	mov    -0xc(%ebp),%eax
  803423:	69 c0 cc 00 00 00    	imul   $0xcc,%eax,%eax
  803429:	01 d0                	add    %edx,%eax
  80342b:	05 60 01 00 00       	add    $0x160,%eax
  803430:	0f b7 10             	movzwl (%eax),%edx
  803433:	c7 c1 e0 31 86 00    	mov    $0x8631e0,%ecx
  803439:	8b 45 f4             	mov    -0xc(%ebp),%eax
  80343c:	69 c0 cc 00 00 00    	imul   $0xcc,%eax,%eax
  803442:	01 c8                	add    %ecx,%eax
  803444:	05 b6 00 00 00       	add    $0xb6,%eax
  803449:	0f b7 00             	movzwl (%eax),%eax
  80344c:	66 39 c2             	cmp    %ax,%dx
  80344f:	72 1e                	jb     80346f <PAL_BattleUpdateFighters+0x430>
  803451:	c7 c2 e0 31 86 00    	mov    $0x8631e0,%edx
  803457:	8b 45 f4             	mov    -0xc(%ebp),%eax
  80345a:	69 c0 cc 00 00 00    	imul   $0xcc,%eax,%eax
  803460:	01 d0                	add    %edx,%eax
  803462:	05 60 01 00 00       	add    $0x160,%eax
  803467:	66 c7 00 00 00       	movw   $0x0,(%eax)
  80346c:	eb 01                	jmp    80346f <PAL_BattleUpdateFighters+0x430>
  80346e:	90                   	nop
  80346f:	83 45 f4 01          	addl   $0x1,-0xc(%ebp)
  803473:	c7 c0 e0 31 86 00    	mov    $0x8631e0,%eax
  803479:	0f b7 80 b0 04 00 00 	movzwl 0x4b0(%eax),%eax
  803480:	0f b7 c0             	movzwl %ax,%eax
  803483:	3b 45 f4             	cmp    -0xc(%ebp),%eax
  803486:	0f 8d cc fd ff ff    	jge    803258 <PAL_BattleUpdateFighters+0x219>
  80348c:	90                   	nop
  80348d:	8d 65 f8             	lea    -0x8(%ebp),%esp
  803490:	5b                   	pop    %ebx
  803491:	5e                   	pop    %esi
  803492:	5d                   	pop    %ebp
  803493:	c3                   	ret    

00803494 <PAL_BattlePlayerCheckReady>:
  803494:	55                   	push   %ebp
  803495:	89 e5                	mov    %esp,%ebp
  803497:	83 ec 18             	sub    $0x18,%esp
  80349a:	e8 97 cc ff ff       	call   800136 <__x86.get_pc_thunk.ax>
  80349f:	05 61 7b 04 00       	add    $0x47b61,%eax
  8034a4:	d9 ee                	fldz   
  8034a6:	d9 5d fc             	fstps  -0x4(%ebp)
  8034a9:	c7 45 f8 00 00 00 00 	movl   $0x0,-0x8(%ebp)
  8034b0:	c7 45 f4 00 00 00 00 	movl   $0x0,-0xc(%ebp)
  8034b7:	e9 a4 00 00 00       	jmp    803560 <PAL_BattlePlayerCheckReady+0xcc>
  8034bc:	c7 c1 e0 31 86 00    	mov    $0x8631e0,%ecx
  8034c2:	8b 55 f4             	mov    -0xc(%ebp),%edx
  8034c5:	6b d2 3c             	imul   $0x3c,%edx,%edx
  8034c8:	01 ca                	add    %ecx,%edx
  8034ca:	83 c2 20             	add    $0x20,%edx
  8034cd:	8b 12                	mov    (%edx),%edx
  8034cf:	83 fa 01             	cmp    $0x1,%edx
  8034d2:	74 30                	je     803504 <PAL_BattlePlayerCheckReady+0x70>
  8034d4:	c7 c1 e0 31 86 00    	mov    $0x8631e0,%ecx
  8034da:	8b 55 f4             	mov    -0xc(%ebp),%edx
  8034dd:	6b d2 3c             	imul   $0x3c,%edx,%edx
  8034e0:	01 ca                	add    %ecx,%edx
  8034e2:	83 c2 20             	add    $0x20,%edx
  8034e5:	8b 12                	mov    (%edx),%edx
  8034e7:	83 fa 02             	cmp    $0x2,%edx
  8034ea:	75 1f                	jne    80350b <PAL_BattlePlayerCheckReady+0x77>
  8034ec:	c7 c1 e0 31 86 00    	mov    $0x8631e0,%ecx
  8034f2:	8b 55 f4             	mov    -0xc(%ebp),%edx
  8034f5:	6b d2 3c             	imul   $0x3c,%edx,%edx
  8034f8:	01 ca                	add    %ecx,%edx
  8034fa:	83 c2 24             	add    $0x24,%edx
  8034fd:	8b 12                	mov    (%edx),%edx
  8034ff:	83 fa 04             	cmp    $0x4,%edx
  803502:	75 07                	jne    80350b <PAL_BattlePlayerCheckReady+0x77>
  803504:	d9 ee                	fldz   
  803506:	d9 5d fc             	fstps  -0x4(%ebp)
  803509:	eb 70                	jmp    80357b <PAL_BattlePlayerCheckReady+0xe7>
  80350b:	c7 c1 e0 31 86 00    	mov    $0x8631e0,%ecx
  803511:	8b 55 f4             	mov    -0xc(%ebp),%edx
  803514:	6b d2 3c             	imul   $0x3c,%edx,%edx
  803517:	01 ca                	add    %ecx,%edx
  803519:	83 c2 20             	add    $0x20,%edx
  80351c:	8b 12                	mov    (%edx),%edx
  80351e:	85 d2                	test   %edx,%edx
  803520:	75 3a                	jne    80355c <PAL_BattlePlayerCheckReady+0xc8>
  803522:	c7 c1 e0 31 86 00    	mov    $0x8631e0,%ecx
  803528:	8b 55 f4             	mov    -0xc(%ebp),%edx
  80352b:	6b d2 3c             	imul   $0x3c,%edx,%edx
  80352e:	01 ca                	add    %ecx,%edx
  803530:	83 c2 04             	add    $0x4,%edx
  803533:	d9 02                	flds   (%edx)
  803535:	d9 45 fc             	flds   -0x4(%ebp)
  803538:	d9 c9                	fxch   %st(1)
  80353a:	df e9                	fucomip %st(1),%st
  80353c:	dd d8                	fstp   %st(0)
  80353e:	76 1c                	jbe    80355c <PAL_BattlePlayerCheckReady+0xc8>
  803540:	8b 55 f4             	mov    -0xc(%ebp),%edx
  803543:	89 55 f8             	mov    %edx,-0x8(%ebp)
  803546:	c7 c1 e0 31 86 00    	mov    $0x8631e0,%ecx
  80354c:	8b 55 f4             	mov    -0xc(%ebp),%edx
  80354f:	6b d2 3c             	imul   $0x3c,%edx,%edx
  803552:	01 ca                	add    %ecx,%edx
  803554:	83 c2 04             	add    $0x4,%edx
  803557:	d9 02                	flds   (%edx)
  803559:	d9 5d fc             	fstps  -0x4(%ebp)
  80355c:	83 45 f4 01          	addl   $0x1,-0xc(%ebp)
  803560:	c7 c2 5c 24 86 00    	mov    $0x86245c,%edx
  803566:	8b 12                	mov    (%edx),%edx
  803568:	0f b7 92 f6 43 00 00 	movzwl 0x43f6(%edx),%edx
  80356f:	0f b7 d2             	movzwl %dx,%edx
  803572:	3b 55 f4             	cmp    -0xc(%ebp),%edx
  803575:	0f 8d 41 ff ff ff    	jge    8034bc <PAL_BattlePlayerCheckReady+0x28>
  80357b:	d9 45 fc             	flds   -0x4(%ebp)
  80357e:	d9 7d ee             	fnstcw -0x12(%ebp)
  803581:	0f b7 55 ee          	movzwl -0x12(%ebp),%edx
  803585:	b6 0c                	mov    $0xc,%dh
  803587:	66 89 55 ec          	mov    %dx,-0x14(%ebp)
  80358b:	d9 6d ec             	fldcw  -0x14(%ebp)
  80358e:	db 5d e8             	fistpl -0x18(%ebp)
  803591:	d9 6d ee             	fldcw  -0x12(%ebp)
  803594:	8b 55 e8             	mov    -0x18(%ebp),%edx
  803597:	83 fa 63             	cmp    $0x63,%edx
  80359a:	7e 2e                	jle    8035ca <PAL_BattlePlayerCheckReady+0x136>
  80359c:	c7 c1 e0 31 86 00    	mov    $0x8631e0,%ecx
  8035a2:	8b 55 f8             	mov    -0x8(%ebp),%edx
  8035a5:	6b d2 3c             	imul   $0x3c,%edx,%edx
  8035a8:	01 ca                	add    %ecx,%edx
  8035aa:	83 c2 20             	add    $0x20,%edx
  8035ad:	c7 02 01 00 00 00    	movl   $0x1,(%edx)
  8035b3:	c7 c2 e0 31 86 00    	mov    $0x8631e0,%edx
  8035b9:	8b 45 f8             	mov    -0x8(%ebp),%eax
  8035bc:	6b c0 3c             	imul   $0x3c,%eax,%eax
  8035bf:	01 d0                	add    %edx,%eax
  8035c1:	83 c0 30             	add    $0x30,%eax
  8035c4:	c7 00 00 00 00 00    	movl   $0x0,(%eax)
  8035ca:	90                   	nop
  8035cb:	c9                   	leave  
  8035cc:	c3                   	ret    

008035cd <PAL_BattleStartFrame>:
  8035cd:	55                   	push   %ebp
  8035ce:	89 e5                	mov    %esp,%ebp
  8035d0:	53                   	push   %ebx
  8035d1:	83 ec 44             	sub    $0x44,%esp
  8035d4:	e8 61 cb ff ff       	call   80013a <__x86.get_pc_thunk.bx>
  8035d9:	81 c3 27 7a 04 00    	add    $0x47a27,%ebx
  8035df:	c7 45 ec 01 00 00 00 	movl   $0x1,-0x14(%ebp)
  8035e6:	c7 45 e8 00 00 00 00 	movl   $0x0,-0x18(%ebp)
  8035ed:	c7 c0 e0 31 86 00    	mov    $0x8631e0,%eax
  8035f3:	8b 80 d8 04 00 00    	mov    0x4d8(%eax),%eax
  8035f9:	85 c0                	test   %eax,%eax
  8035fb:	75 05                	jne    803602 <PAL_BattleStartFrame+0x35>
  8035fd:	e8 3d fa ff ff       	call   80303f <PAL_BattleUpdateFighters>
  803602:	e8 61 95 00 00       	call   80cb68 <PAL_BattleMakeScene>
  803607:	c7 c0 40 24 86 00    	mov    $0x862440,%eax
  80360d:	8b 10                	mov    (%eax),%edx
  80360f:	c7 c0 e0 31 86 00    	mov    $0x8631e0,%eax
  803615:	8b 80 b4 04 00 00    	mov    0x4b4(%eax),%eax
  80361b:	6a 00                	push   $0x0
  80361d:	52                   	push   %edx
  80361e:	6a 00                	push   $0x0
  803620:	50                   	push   %eax
  803621:	e8 8a d5 ff ff       	call   800bb0 <SDL_BlitSurface>
  803626:	83 c4 10             	add    $0x10,%esp
  803629:	c7 c0 e0 31 86 00    	mov    $0x8631e0,%eax
  80362f:	8b 80 d8 04 00 00    	mov    0x4d8(%eax),%eax
  803635:	85 c0                	test   %eax,%eax
  803637:	74 24                	je     80365d <PAL_BattleStartFrame+0x90>
  803639:	c7 c0 e0 31 86 00    	mov    $0x8631e0,%eax
  80363f:	c7 80 dc 04 00 00 03 	movl   $0x3,0x4dc(%eax)
  803646:	00 00 00 
  803649:	83 ec 08             	sub    $0x8,%esp
  80364c:	6a 00                	push   $0x0
  80364e:	6a ff                	push   $0xffffffff
  803650:	e8 01 28 01 00       	call   815e56 <SOUND_PlayChannel>
  803655:	83 c4 10             	add    $0x10,%esp
  803658:	e9 05 0b 00 00       	jmp    804162 <PAL_BattleStartFrame+0xb95>
  80365d:	c7 45 e0 01 00 00 00 	movl   $0x1,-0x20(%ebp)
  803664:	c7 45 f4 00 00 00 00 	movl   $0x0,-0xc(%ebp)
  80366b:	eb 7d                	jmp    8036ea <PAL_BattleStartFrame+0x11d>
  80366d:	c7 c0 5c 24 86 00    	mov    $0x86245c,%eax
  803673:	8b 08                	mov    (%eax),%ecx
  803675:	8b 55 f4             	mov    -0xc(%ebp),%edx
  803678:	89 d0                	mov    %edx,%eax
  80367a:	c1 e0 02             	shl    $0x2,%eax
  80367d:	01 d0                	add    %edx,%eax
  80367f:	01 c0                	add    %eax,%eax
  803681:	01 c8                	add    %ecx,%eax
  803683:	05 f8 43 00 00       	add    $0x43f8,%eax
  803688:	0f b7 00             	movzwl (%eax),%eax
  80368b:	66 89 45 de          	mov    %ax,-0x22(%ebp)
  80368f:	c7 c0 5c 24 86 00    	mov    $0x86245c,%eax
  803695:	8b 00                	mov    (%eax),%eax
  803697:	0f b7 55 de          	movzwl -0x22(%ebp),%edx
  80369b:	81 c2 10 13 00 00    	add    $0x1310,%edx
  8036a1:	0f b7 44 50 14       	movzwl 0x14(%eax,%edx,2),%eax
  8036a6:	66 85 c0             	test   %ax,%ax
  8036a9:	74 10                	je     8036bb <PAL_BattleStartFrame+0xee>
  8036ab:	c7 45 ec 00 00 00 00 	movl   $0x0,-0x14(%ebp)
  8036b2:	c7 45 e0 00 00 00 00 	movl   $0x0,-0x20(%ebp)
  8036b9:	eb 4a                	jmp    803705 <PAL_BattleStartFrame+0x138>
  8036bb:	c7 c0 5c 24 86 00    	mov    $0x86245c,%eax
  8036c1:	8b 08                	mov    (%eax),%ecx
  8036c3:	0f b7 55 de          	movzwl -0x22(%ebp),%edx
  8036c7:	89 d0                	mov    %edx,%eax
  8036c9:	c1 e0 03             	shl    $0x3,%eax
  8036cc:	01 d0                	add    %edx,%eax
  8036ce:	01 c0                	add    %eax,%eax
  8036d0:	01 c8                	add    %ecx,%eax
  8036d2:	05 88 43 00 00       	add    $0x4388,%eax
  8036d7:	0f b7 00             	movzwl (%eax),%eax
  8036da:	66 85 c0             	test   %ax,%ax
  8036dd:	74 07                	je     8036e6 <PAL_BattleStartFrame+0x119>
  8036df:	c7 45 e0 00 00 00 00 	movl   $0x0,-0x20(%ebp)
  8036e6:	83 45 f4 01          	addl   $0x1,-0xc(%ebp)
  8036ea:	c7 c0 5c 24 86 00    	mov    $0x86245c,%eax
  8036f0:	8b 00                	mov    (%eax),%eax
  8036f2:	0f b7 80 f6 43 00 00 	movzwl 0x43f6(%eax),%eax
  8036f9:	0f b7 c0             	movzwl %ax,%eax
  8036fc:	3b 45 f4             	cmp    -0xc(%ebp),%eax
  8036ff:	0f 8d 68 ff ff ff    	jge    80366d <PAL_BattleStartFrame+0xa0>
  803705:	83 7d e0 00          	cmpl   $0x0,-0x20(%ebp)
  803709:	74 15                	je     803720 <PAL_BattleStartFrame+0x153>
  80370b:	c7 c0 e0 31 86 00    	mov    $0x8631e0,%eax
  803711:	c7 80 dc 04 00 00 01 	movl   $0x1,0x4dc(%eax)
  803718:	00 00 00 
  80371b:	e9 42 0a 00 00       	jmp    804162 <PAL_BattleStartFrame+0xb95>
  803720:	c7 c0 e0 31 86 00    	mov    $0x8631e0,%eax
  803726:	8b 80 0c 08 00 00    	mov    0x80c(%eax),%eax
  80372c:	85 c0                	test   %eax,%eax
  80372e:	7e 54                	jle    803784 <PAL_BattleStartFrame+0x1b7>
  803730:	83 ec 0c             	sub    $0xc,%esp
  803733:	68 0f 27 00 00       	push   $0x270f
  803738:	e8 b0 e7 ff ff       	call   801eed <PAL_GetTimeChargingSpeed>
  80373d:	83 c4 10             	add    $0x10,%esp
  803740:	d9 ee                	fldz   
  803742:	d9 c9                	fxch   %st(1)
  803744:	df e9                	fucomip %st(1),%st
  803746:	dd d8                	fstp   %st(0)
  803748:	76 1b                	jbe    803765 <PAL_BattleStartFrame+0x198>
  80374a:	c7 c0 e0 31 86 00    	mov    $0x8631e0,%eax
  803750:	8b 80 0c 08 00 00    	mov    0x80c(%eax),%eax
  803756:	8d 50 ff             	lea    -0x1(%eax),%edx
  803759:	c7 c0 e0 31 86 00    	mov    $0x8631e0,%eax
  80375f:	89 90 0c 08 00 00    	mov    %edx,0x80c(%eax)
  803765:	c7 c0 e0 31 86 00    	mov    $0x8631e0,%eax
  80376b:	8b 80 0c 08 00 00    	mov    0x80c(%eax),%eax
  803771:	85 c0                	test   %eax,%eax
  803773:	75 0f                	jne    803784 <PAL_BattleStartFrame+0x1b7>
  803775:	e8 39 9e 00 00       	call   80d5b3 <PAL_BattleBackupScene>
  80377a:	e8 e9 93 00 00       	call   80cb68 <PAL_BattleMakeScene>
  80377f:	e8 6a 9e 00 00       	call   80d5ee <PAL_BattleFadeScene>
  803784:	c7 45 f4 00 00 00 00 	movl   $0x0,-0xc(%ebp)
  80378b:	e9 b2 00 00 00       	jmp    803842 <PAL_BattleStartFrame+0x275>
  803790:	c7 c2 e0 31 86 00    	mov    $0x8631e0,%edx
  803796:	8b 45 f4             	mov    -0xc(%ebp),%eax
  803799:	69 c0 cc 00 00 00    	imul   $0xcc,%eax,%eax
  80379f:	01 d0                	add    %edx,%eax
  8037a1:	05 b4 00 00 00       	add    $0xb4,%eax
  8037a6:	0f b7 00             	movzwl (%eax),%eax
  8037a9:	66 85 c0             	test   %ax,%ax
  8037ac:	0f 84 8b 00 00 00    	je     80383d <PAL_BattleStartFrame+0x270>
  8037b2:	c7 c2 e0 31 86 00    	mov    $0x8631e0,%edx
  8037b8:	8b 45 f4             	mov    -0xc(%ebp),%eax
  8037bb:	69 c0 cc 00 00 00    	imul   $0xcc,%eax,%eax
  8037c1:	01 d0                	add    %edx,%eax
  8037c3:	05 68 01 00 00       	add    $0x168,%eax
  8037c8:	8b 00                	mov    (%eax),%eax
  8037ca:	85 c0                	test   %eax,%eax
  8037cc:	74 70                	je     80383e <PAL_BattleStartFrame+0x271>
  8037ce:	8b 45 f4             	mov    -0xc(%ebp),%eax
  8037d1:	0f b7 d0             	movzwl %ax,%edx
  8037d4:	c7 c1 e0 31 86 00    	mov    $0x8631e0,%ecx
  8037da:	8b 45 f4             	mov    -0xc(%ebp),%eax
  8037dd:	69 c0 cc 00 00 00    	imul   $0xcc,%eax,%eax
  8037e3:	01 c8                	add    %ecx,%eax
  8037e5:	05 74 01 00 00       	add    $0x174,%eax
  8037ea:	0f b7 00             	movzwl (%eax),%eax
  8037ed:	0f b7 c0             	movzwl %ax,%eax
  8037f0:	83 ec 08             	sub    $0x8,%esp
  8037f3:	52                   	push   %edx
  8037f4:	50                   	push   %eax
  8037f5:	e8 ed cc 01 00       	call   8204e7 <PAL_RunTriggerScript>
  8037fa:	83 c4 10             	add    $0x10,%esp
  8037fd:	89 c1                	mov    %eax,%ecx
  8037ff:	c7 c2 e0 31 86 00    	mov    $0x8631e0,%edx
  803805:	8b 45 f4             	mov    -0xc(%ebp),%eax
  803808:	69 c0 cc 00 00 00    	imul   $0xcc,%eax,%eax
  80380e:	01 d0                	add    %edx,%eax
  803810:	05 74 01 00 00       	add    $0x174,%eax
  803815:	66 89 08             	mov    %cx,(%eax)
  803818:	c7 c2 e0 31 86 00    	mov    $0x8631e0,%edx
  80381e:	8b 45 f4             	mov    -0xc(%ebp),%eax
  803821:	69 c0 cc 00 00 00    	imul   $0xcc,%eax,%eax
  803827:	01 d0                	add    %edx,%eax
  803829:	05 68 01 00 00       	add    $0x168,%eax
  80382e:	c7 00 00 00 00 00    	movl   $0x0,(%eax)
  803834:	c7 45 e8 01 00 00 00 	movl   $0x1,-0x18(%ebp)
  80383b:	eb 01                	jmp    80383e <PAL_BattleStartFrame+0x271>
  80383d:	90                   	nop
  80383e:	83 45 f4 01          	addl   $0x1,-0xc(%ebp)
  803842:	c7 c0 e0 31 86 00    	mov    $0x8631e0,%eax
  803848:	0f b7 80 b0 04 00 00 	movzwl 0x4b0(%eax),%eax
  80384f:	0f b7 c0             	movzwl %ax,%eax
  803852:	3b 45 f4             	cmp    -0xc(%ebp),%eax
  803855:	0f 8d 35 ff ff ff    	jge    803790 <PAL_BattleStartFrame+0x1c3>
  80385b:	c7 45 f4 00 00 00 00 	movl   $0x0,-0xc(%ebp)
  803862:	e9 f4 03 00 00       	jmp    803c5b <PAL_BattleStartFrame+0x68e>
  803867:	c7 c2 e0 31 86 00    	mov    $0x8631e0,%edx
  80386d:	8b 45 f4             	mov    -0xc(%ebp),%eax
  803870:	69 c0 cc 00 00 00    	imul   $0xcc,%eax,%eax
  803876:	01 d0                	add    %edx,%eax
  803878:	05 b4 00 00 00       	add    $0xb4,%eax
  80387d:	0f b7 00             	movzwl (%eax),%eax
  803880:	66 85 c0             	test   %ax,%ax
  803883:	0f 84 ca 03 00 00    	je     803c53 <PAL_BattleStartFrame+0x686>
  803889:	c7 c2 e0 31 86 00    	mov    $0x8631e0,%edx
  80388f:	8b 45 f4             	mov    -0xc(%ebp),%eax
  803892:	69 c0 cc 00 00 00    	imul   $0xcc,%eax,%eax
  803898:	01 d0                	add    %edx,%eax
  80389a:	05 64 01 00 00       	add    $0x164,%eax
  80389f:	8b 00                	mov    (%eax),%eax
  8038a1:	83 f8 01             	cmp    $0x1,%eax
  8038a4:	0f 84 3c 01 00 00    	je     8039e6 <PAL_BattleStartFrame+0x419>
  8038aa:	83 f8 01             	cmp    $0x1,%eax
  8038ad:	72 0e                	jb     8038bd <PAL_BattleStartFrame+0x2f0>
  8038af:	83 f8 02             	cmp    $0x2,%eax
  8038b2:	0f 84 a0 01 00 00    	je     803a58 <PAL_BattleStartFrame+0x48b>
  8038b8:	e9 9a 03 00 00       	jmp    803c57 <PAL_BattleStartFrame+0x68a>
  8038bd:	8b 45 f4             	mov    -0xc(%ebp),%eax
  8038c0:	0f b7 c0             	movzwl %ax,%eax
  8038c3:	83 ec 0c             	sub    $0xc,%esp
  8038c6:	50                   	push   %eax
  8038c7:	e8 9d e2 ff ff       	call   801b69 <PAL_GetEnemyDexterity>
  8038cc:	83 c4 10             	add    $0x10,%esp
  8038cf:	0f b7 c0             	movzwl %ax,%eax
  8038d2:	83 ec 0c             	sub    $0xc,%esp
  8038d5:	50                   	push   %eax
  8038d6:	e8 12 e6 ff ff       	call   801eed <PAL_GetTimeChargingSpeed>
  8038db:	83 c4 10             	add    $0x10,%esp
  8038de:	d9 5d c4             	fstps  -0x3c(%ebp)
  8038e1:	8b 45 c4             	mov    -0x3c(%ebp),%eax
  8038e4:	89 45 d8             	mov    %eax,-0x28(%ebp)
  8038e7:	c7 c0 5c 24 86 00    	mov    $0x86245c,%eax
  8038ed:	8b 00                	mov    (%eax),%eax
  8038ef:	8b 80 dc 2a 00 00    	mov    0x2adc(%eax),%eax
  8038f5:	85 c0                	test   %eax,%eax
  8038f7:	74 08                	je     803901 <PAL_BattleStartFrame+0x334>
  8038f9:	d9 83 04 6b ff ff    	flds   -0x94fc(%ebx)
  8038ff:	eb 02                	jmp    803903 <PAL_BattleStartFrame+0x336>
  803901:	d9 e8                	fld1   
  803903:	d9 45 d8             	flds   -0x28(%ebp)
  803906:	de f1                	fdivp  %st,%st(1)
  803908:	d9 5d d8             	fstps  -0x28(%ebp)
  80390b:	d9 45 d8             	flds   -0x28(%ebp)
  80390e:	d9 ee                	fldz   
  803910:	df e9                	fucomip %st(1),%st
  803912:	dd d8                	fstp   %st(0)
  803914:	7a 10                	jp     803926 <PAL_BattleStartFrame+0x359>
  803916:	d9 45 d8             	flds   -0x28(%ebp)
  803919:	d9 ee                	fldz   
  80391b:	df e9                	fucomip %st(1),%st
  80391d:	dd d8                	fstp   %st(0)
  80391f:	75 05                	jne    803926 <PAL_BattleStartFrame+0x359>
  803921:	e9 31 03 00 00       	jmp    803c57 <PAL_BattleStartFrame+0x68a>
  803926:	c7 c2 e0 31 86 00    	mov    $0x8631e0,%edx
  80392c:	8b 45 f4             	mov    -0xc(%ebp),%eax
  80392f:	69 c0 cc 00 00 00    	imul   $0xcc,%eax,%eax
  803935:	01 d0                	add    %edx,%eax
  803937:	05 10 01 00 00       	add    $0x110,%eax
  80393c:	d9 00                	flds   (%eax)
  80393e:	d8 45 d8             	fadds  -0x28(%ebp)
  803941:	c7 c2 e0 31 86 00    	mov    $0x8631e0,%edx
  803947:	8b 45 f4             	mov    -0xc(%ebp),%eax
  80394a:	69 c0 cc 00 00 00    	imul   $0xcc,%eax,%eax
  803950:	01 d0                	add    %edx,%eax
  803952:	05 10 01 00 00       	add    $0x110,%eax
  803957:	d9 18                	fstps  (%eax)
  803959:	c7 c2 e0 31 86 00    	mov    $0x8631e0,%edx
  80395f:	8b 45 f4             	mov    -0xc(%ebp),%eax
  803962:	69 c0 cc 00 00 00    	imul   $0xcc,%eax,%eax
  803968:	01 d0                	add    %edx,%eax
  80396a:	05 10 01 00 00       	add    $0x110,%eax
  80396f:	d9 00                	flds   (%eax)
  803971:	d9 83 48 6b ff ff    	flds   -0x94b8(%ebx)
  803977:	d9 c9                	fxch   %st(1)
  803979:	df e9                	fucomip %st(1),%st
  80397b:	dd d8                	fstp   %st(0)
  80397d:	77 05                	ja     803984 <PAL_BattleStartFrame+0x3b7>
  80397f:	e9 d3 02 00 00       	jmp    803c57 <PAL_BattleStartFrame+0x68a>
  803984:	d9 45 d8             	flds   -0x28(%ebp)
  803987:	d9 ee                	fldz   
  803989:	d9 c9                	fxch   %st(1)
  80398b:	df e9                	fucomip %st(1),%st
  80398d:	dd d8                	fstp   %st(0)
  80398f:	77 05                	ja     803996 <PAL_BattleStartFrame+0x3c9>
  803991:	e9 c1 02 00 00       	jmp    803c57 <PAL_BattleStartFrame+0x68a>
  803996:	c7 c0 e0 31 86 00    	mov    $0x8631e0,%eax
  80399c:	8b 80 0c 08 00 00    	mov    0x80c(%eax),%eax
  8039a2:	85 c0                	test   %eax,%eax
  8039a4:	75 21                	jne    8039c7 <PAL_BattleStartFrame+0x3fa>
  8039a6:	c7 c2 e0 31 86 00    	mov    $0x8631e0,%edx
  8039ac:	8b 45 f4             	mov    -0xc(%ebp),%eax
  8039af:	69 c0 cc 00 00 00    	imul   $0xcc,%eax,%eax
  8039b5:	01 d0                	add    %edx,%eax
  8039b7:	05 64 01 00 00       	add    $0x164,%eax
  8039bc:	c7 00 01 00 00 00    	movl   $0x1,(%eax)
  8039c2:	e9 90 02 00 00       	jmp    803c57 <PAL_BattleStartFrame+0x68a>
  8039c7:	c7 c2 e0 31 86 00    	mov    $0x8631e0,%edx
  8039cd:	8b 45 f4             	mov    -0xc(%ebp),%eax
  8039d0:	69 c0 cc 00 00 00    	imul   $0xcc,%eax,%eax
  8039d6:	01 d0                	add    %edx,%eax
  8039d8:	05 10 01 00 00       	add    $0x110,%eax
  8039dd:	d9 ee                	fldz   
  8039df:	d9 18                	fstps  (%eax)
  8039e1:	e9 71 02 00 00       	jmp    803c57 <PAL_BattleStartFrame+0x68a>
  8039e6:	8b 45 f4             	mov    -0xc(%ebp),%eax
  8039e9:	0f b7 d0             	movzwl %ax,%edx
  8039ec:	c7 c1 e0 31 86 00    	mov    $0x8631e0,%ecx
  8039f2:	8b 45 f4             	mov    -0xc(%ebp),%eax
  8039f5:	69 c0 cc 00 00 00    	imul   $0xcc,%eax,%eax
  8039fb:	01 c8                	add    %ecx,%eax
  8039fd:	05 78 01 00 00       	add    $0x178,%eax
  803a02:	0f b7 00             	movzwl (%eax),%eax
  803a05:	0f b7 c0             	movzwl %ax,%eax
  803a08:	83 ec 08             	sub    $0x8,%esp
  803a0b:	52                   	push   %edx
  803a0c:	50                   	push   %eax
  803a0d:	e8 d5 ca 01 00       	call   8204e7 <PAL_RunTriggerScript>
  803a12:	83 c4 10             	add    $0x10,%esp
  803a15:	89 c1                	mov    %eax,%ecx
  803a17:	c7 c2 e0 31 86 00    	mov    $0x8631e0,%edx
  803a1d:	8b 45 f4             	mov    -0xc(%ebp),%eax
  803a20:	69 c0 cc 00 00 00    	imul   $0xcc,%eax,%eax
  803a26:	01 d0                	add    %edx,%eax
  803a28:	05 78 01 00 00       	add    $0x178,%eax
  803a2d:	66 89 08             	mov    %cx,(%eax)
  803a30:	c7 c2 e0 31 86 00    	mov    $0x8631e0,%edx
  803a36:	8b 45 f4             	mov    -0xc(%ebp),%eax
  803a39:	69 c0 cc 00 00 00    	imul   $0xcc,%eax,%eax
  803a3f:	01 d0                	add    %edx,%eax
  803a41:	05 64 01 00 00       	add    $0x164,%eax
  803a46:	c7 00 02 00 00 00    	movl   $0x2,(%eax)
  803a4c:	c7 45 e8 01 00 00 00 	movl   $0x1,-0x18(%ebp)
  803a53:	e9 ff 01 00 00       	jmp    803c57 <PAL_BattleStartFrame+0x68a>
  803a58:	83 7d e8 00          	cmpl   $0x0,-0x18(%ebp)
  803a5c:	0f 85 f4 01 00 00    	jne    803c56 <PAL_BattleStartFrame+0x689>
  803a62:	83 ec 0c             	sub    $0xc,%esp
  803a65:	68 0f 27 00 00       	push   $0x270f
  803a6a:	e8 7e e4 ff ff       	call   801eed <PAL_GetTimeChargingSpeed>
  803a6f:	83 c4 10             	add    $0x10,%esp
  803a72:	d9 ee                	fldz   
  803a74:	d9 c9                	fxch   %st(1)
  803a76:	df e9                	fucomip %st(1),%st
  803a78:	dd d8                	fstp   %st(0)
  803a7a:	77 20                	ja     803a9c <PAL_BattleStartFrame+0x4cf>
  803a7c:	c7 c2 e0 31 86 00    	mov    $0x8631e0,%edx
  803a82:	8b 45 f4             	mov    -0xc(%ebp),%eax
  803a85:	69 c0 cc 00 00 00    	imul   $0xcc,%eax,%eax
  803a8b:	01 d0                	add    %edx,%eax
  803a8d:	05 70 01 00 00       	add    $0x170,%eax
  803a92:	8b 00                	mov    (%eax),%eax
  803a94:	85 c0                	test   %eax,%eax
  803a96:	0f 84 ba 01 00 00    	je     803c56 <PAL_BattleStartFrame+0x689>
  803a9c:	83 7d ec 00          	cmpl   $0x0,-0x14(%ebp)
  803aa0:	0f 85 b0 01 00 00    	jne    803c56 <PAL_BattleStartFrame+0x689>
  803aa6:	c7 45 e8 01 00 00 00 	movl   $0x1,-0x18(%ebp)
  803aad:	c7 c0 e0 31 86 00    	mov    $0x8631e0,%eax
  803ab3:	c7 80 08 08 00 00 01 	movl   $0x1,0x808(%eax)
  803aba:	00 00 00 
  803abd:	c7 c2 e0 31 86 00    	mov    $0x8631e0,%edx
  803ac3:	8b 45 f4             	mov    -0xc(%ebp),%eax
  803ac6:	69 c0 cc 00 00 00    	imul   $0xcc,%eax,%eax
  803acc:	01 d0                	add    %edx,%eax
  803ace:	05 6c 01 00 00       	add    $0x16c,%eax
  803ad3:	8b 00                	mov    (%eax),%eax
  803ad5:	85 c0                	test   %eax,%eax
  803ad7:	75 57                	jne    803b30 <PAL_BattleStartFrame+0x563>
  803ad9:	c7 c2 e0 31 86 00    	mov    $0x8631e0,%edx
  803adf:	8b 45 f4             	mov    -0xc(%ebp),%eax
  803ae2:	69 c0 cc 00 00 00    	imul   $0xcc,%eax,%eax
  803ae8:	01 d0                	add    %edx,%eax
  803aea:	05 f8 00 00 00       	add    $0xf8,%eax
  803aef:	0f b7 00             	movzwl (%eax),%eax
  803af2:	66 83 f8 01          	cmp    $0x1,%ax
  803af6:	77 31                	ja     803b29 <PAL_BattleStartFrame+0x55c>
  803af8:	c7 c2 e0 31 86 00    	mov    $0x8631e0,%edx
  803afe:	8b 45 f4             	mov    -0xc(%ebp),%eax
  803b01:	69 c0 cc 00 00 00    	imul   $0xcc,%eax,%eax
  803b07:	01 d0                	add    %edx,%eax
  803b09:	05 f8 00 00 00       	add    $0xf8,%eax
  803b0e:	0f b7 00             	movzwl (%eax),%eax
  803b11:	66 85 c0             	test   %ax,%ax
  803b14:	74 1a                	je     803b30 <PAL_BattleStartFrame+0x563>
  803b16:	83 ec 08             	sub    $0x8,%esp
  803b19:	6a 01                	push   $0x1
  803b1b:	6a 00                	push   $0x0
  803b1d:	e8 c5 ff 01 00       	call   823ae7 <RandomLong>
  803b22:	83 c4 10             	add    $0x10,%esp
  803b25:	85 c0                	test   %eax,%eax
  803b27:	74 07                	je     803b30 <PAL_BattleStartFrame+0x563>
  803b29:	b9 01 00 00 00       	mov    $0x1,%ecx
  803b2e:	eb 05                	jmp    803b35 <PAL_BattleStartFrame+0x568>
  803b30:	b9 00 00 00 00       	mov    $0x0,%ecx
  803b35:	c7 c2 e0 31 86 00    	mov    $0x8631e0,%edx
  803b3b:	8b 45 f4             	mov    -0xc(%ebp),%eax
  803b3e:	69 c0 cc 00 00 00    	imul   $0xcc,%eax,%eax
  803b44:	01 d0                	add    %edx,%eax
  803b46:	05 70 01 00 00       	add    $0x170,%eax
  803b4b:	89 08                	mov    %ecx,(%eax)
  803b4d:	8b 45 f4             	mov    -0xc(%ebp),%eax
  803b50:	0f b7 c0             	movzwl %ax,%eax
  803b53:	83 ec 0c             	sub    $0xc,%esp
  803b56:	50                   	push   %eax
  803b57:	e8 0b 6c 00 00       	call   80a767 <PAL_BattleEnemyPerformAction>
  803b5c:	83 c4 10             	add    $0x10,%esp
  803b5f:	c7 c2 e0 31 86 00    	mov    $0x8631e0,%edx
  803b65:	8b 45 f4             	mov    -0xc(%ebp),%eax
  803b68:	69 c0 cc 00 00 00    	imul   $0xcc,%eax,%eax
  803b6e:	01 d0                	add    %edx,%eax
  803b70:	05 10 01 00 00       	add    $0x110,%eax
  803b75:	d9 ee                	fldz   
  803b77:	d9 18                	fstps  (%eax)
  803b79:	c7 c2 e0 31 86 00    	mov    $0x8631e0,%edx
  803b7f:	8b 45 f4             	mov    -0xc(%ebp),%eax
  803b82:	69 c0 cc 00 00 00    	imul   $0xcc,%eax,%eax
  803b88:	01 d0                	add    %edx,%eax
  803b8a:	05 64 01 00 00       	add    $0x164,%eax
  803b8f:	c7 00 00 00 00 00    	movl   $0x0,(%eax)
  803b95:	c7 c0 e0 31 86 00    	mov    $0x8631e0,%eax
  803b9b:	c7 80 08 08 00 00 00 	movl   $0x0,0x808(%eax)
  803ba2:	00 00 00 
  803ba5:	c7 c2 e0 31 86 00    	mov    $0x8631e0,%edx
  803bab:	8b 45 f4             	mov    -0xc(%ebp),%eax
  803bae:	69 c0 cc 00 00 00    	imul   $0xcc,%eax,%eax
  803bb4:	01 d0                	add    %edx,%eax
  803bb6:	05 70 01 00 00       	add    $0x170,%eax
  803bbb:	8b 00                	mov    (%eax),%eax
  803bbd:	85 c0                	test   %eax,%eax
  803bbf:	74 58                	je     803c19 <PAL_BattleStartFrame+0x64c>
  803bc1:	c7 c2 e0 31 86 00    	mov    $0x8631e0,%edx
  803bc7:	8b 45 f4             	mov    -0xc(%ebp),%eax
  803bca:	69 c0 cc 00 00 00    	imul   $0xcc,%eax,%eax
  803bd0:	01 d0                	add    %edx,%eax
  803bd2:	05 10 01 00 00       	add    $0x110,%eax
  803bd7:	d9 83 48 6b ff ff    	flds   -0x94b8(%ebx)
  803bdd:	d9 18                	fstps  (%eax)
  803bdf:	c7 c2 e0 31 86 00    	mov    $0x8631e0,%edx
  803be5:	8b 45 f4             	mov    -0xc(%ebp),%eax
  803be8:	69 c0 cc 00 00 00    	imul   $0xcc,%eax,%eax
  803bee:	01 d0                	add    %edx,%eax
  803bf0:	05 64 01 00 00       	add    $0x164,%eax
  803bf5:	c7 00 01 00 00 00    	movl   $0x1,(%eax)
  803bfb:	c7 c2 e0 31 86 00    	mov    $0x8631e0,%edx
  803c01:	8b 45 f4             	mov    -0xc(%ebp),%eax
  803c04:	69 c0 cc 00 00 00    	imul   $0xcc,%eax,%eax
  803c0a:	01 d0                	add    %edx,%eax
  803c0c:	05 6c 01 00 00       	add    $0x16c,%eax
  803c11:	c7 00 01 00 00 00    	movl   $0x1,(%eax)
  803c17:	eb 3d                	jmp    803c56 <PAL_BattleStartFrame+0x689>
  803c19:	c7 c2 e0 31 86 00    	mov    $0x8631e0,%edx
  803c1f:	8b 45 f4             	mov    -0xc(%ebp),%eax
  803c22:	69 c0 cc 00 00 00    	imul   $0xcc,%eax,%eax
  803c28:	01 d0                	add    %edx,%eax
  803c2a:	05 6c 01 00 00       	add    $0x16c,%eax
  803c2f:	c7 00 00 00 00 00    	movl   $0x0,(%eax)
  803c35:	c7 c2 e0 31 86 00    	mov    $0x8631e0,%edx
  803c3b:	8b 45 f4             	mov    -0xc(%ebp),%eax
  803c3e:	69 c0 cc 00 00 00    	imul   $0xcc,%eax,%eax
  803c44:	01 d0                	add    %edx,%eax
  803c46:	05 68 01 00 00       	add    $0x168,%eax
  803c4b:	c7 00 01 00 00 00    	movl   $0x1,(%eax)
  803c51:	eb 03                	jmp    803c56 <PAL_BattleStartFrame+0x689>
  803c53:	90                   	nop
  803c54:	eb 01                	jmp    803c57 <PAL_BattleStartFrame+0x68a>
  803c56:	90                   	nop
  803c57:	83 45 f4 01          	addl   $0x1,-0xc(%ebp)
  803c5b:	c7 c0 e0 31 86 00    	mov    $0x8631e0,%eax
  803c61:	0f b7 80 b0 04 00 00 	movzwl 0x4b0(%eax),%eax
  803c68:	0f b7 c0             	movzwl %ax,%eax
  803c6b:	3b 45 f4             	cmp    -0xc(%ebp),%eax
  803c6e:	0f 8d f3 fb ff ff    	jge    803867 <PAL_BattleStartFrame+0x29a>
  803c74:	e8 ba 8d 02 00       	call   82ca33 <PAL_BattleUIUpdate>
  803c79:	c7 45 f4 00 00 00 00 	movl   $0x0,-0xc(%ebp)
  803c80:	e9 54 03 00 00       	jmp    803fd9 <PAL_BattleStartFrame+0xa0c>
  803c85:	c7 c0 5c 24 86 00    	mov    $0x86245c,%eax
  803c8b:	8b 08                	mov    (%eax),%ecx
  803c8d:	8b 55 f4             	mov    -0xc(%ebp),%edx
  803c90:	89 d0                	mov    %edx,%eax
  803c92:	c1 e0 02             	shl    $0x2,%eax
  803c95:	01 d0                	add    %edx,%eax
  803c97:	01 c0                	add    %eax,%eax
  803c99:	01 c8                	add    %ecx,%eax
  803c9b:	05 f8 43 00 00       	add    $0x43f8,%eax
  803ca0:	0f b7 00             	movzwl (%eax),%eax
  803ca3:	66 89 45 de          	mov    %ax,-0x22(%ebp)
  803ca7:	c7 c0 5c 24 86 00    	mov    $0x86245c,%eax
  803cad:	8b 00                	mov    (%eax),%eax
  803caf:	0f b7 55 de          	movzwl -0x22(%ebp),%edx
  803cb3:	81 c2 10 13 00 00    	add    $0x1310,%edx
  803cb9:	0f b7 44 50 14       	movzwl 0x14(%eax,%edx,2),%eax
  803cbe:	66 85 c0             	test   %ax,%ax
  803cc1:	0f 85 80 00 00 00    	jne    803d47 <PAL_BattleStartFrame+0x77a>
  803cc7:	c7 c0 5c 24 86 00    	mov    $0x86245c,%eax
  803ccd:	8b 08                	mov    (%eax),%ecx
  803ccf:	0f b7 55 de          	movzwl -0x22(%ebp),%edx
  803cd3:	89 d0                	mov    %edx,%eax
  803cd5:	c1 e0 03             	shl    $0x3,%eax
  803cd8:	01 d0                	add    %edx,%eax
  803cda:	01 c0                	add    %eax,%eax
  803cdc:	01 c8                	add    %ecx,%eax
  803cde:	05 88 43 00 00       	add    $0x4388,%eax
  803ce3:	0f b7 00             	movzwl (%eax),%eax
  803ce6:	66 85 c0             	test   %ax,%ax
  803ce9:	75 5c                	jne    803d47 <PAL_BattleStartFrame+0x77a>
  803ceb:	c7 c2 e0 31 86 00    	mov    $0x8631e0,%edx
  803cf1:	8b 45 f4             	mov    -0xc(%ebp),%eax
  803cf4:	6b c0 3c             	imul   $0x3c,%eax,%eax
  803cf7:	01 d0                	add    %edx,%eax
  803cf9:	83 c0 20             	add    $0x20,%eax
  803cfc:	c7 00 00 00 00 00    	movl   $0x0,(%eax)
  803d02:	c7 c2 e0 31 86 00    	mov    $0x8631e0,%edx
  803d08:	8b 45 f4             	mov    -0xc(%ebp),%eax
  803d0b:	6b c0 3c             	imul   $0x3c,%eax,%eax
  803d0e:	01 d0                	add    %edx,%eax
  803d10:	83 c0 04             	add    $0x4,%eax
  803d13:	d9 ee                	fldz   
  803d15:	d9 18                	fstps  (%eax)
  803d17:	c7 c2 e0 31 86 00    	mov    $0x8631e0,%edx
  803d1d:	8b 45 f4             	mov    -0xc(%ebp),%eax
  803d20:	6b c0 3c             	imul   $0x3c,%eax,%eax
  803d23:	01 d0                	add    %edx,%eax
  803d25:	83 c0 08             	add    $0x8,%eax
  803d28:	d9 e8                	fld1   
  803d2a:	d9 18                	fstps  (%eax)
  803d2c:	c7 c2 e0 31 86 00    	mov    $0x8631e0,%edx
  803d32:	8b 45 f4             	mov    -0xc(%ebp),%eax
  803d35:	6b c0 3c             	imul   $0x3c,%eax,%eax
  803d38:	01 d0                	add    %edx,%eax
  803d3a:	83 c0 38             	add    $0x38,%eax
  803d3d:	66 c7 00 ff ff       	movw   $0xffff,(%eax)
  803d42:	e9 8e 02 00 00       	jmp    803fd5 <PAL_BattleStartFrame+0xa08>
  803d47:	c7 c2 e0 31 86 00    	mov    $0x8631e0,%edx
  803d4d:	8b 45 f4             	mov    -0xc(%ebp),%eax
  803d50:	6b c0 3c             	imul   $0x3c,%eax,%eax
  803d53:	01 d0                	add    %edx,%eax
  803d55:	83 c0 20             	add    $0x20,%eax
  803d58:	8b 00                	mov    (%eax),%eax
  803d5a:	83 f8 01             	cmp    $0x1,%eax
  803d5d:	0f 84 6e 02 00 00    	je     803fd1 <PAL_BattleStartFrame+0xa04>
  803d63:	83 f8 01             	cmp    $0x1,%eax
  803d66:	72 0a                	jb     803d72 <PAL_BattleStartFrame+0x7a5>
  803d68:	83 f8 02             	cmp    $0x2,%eax
  803d6b:	74 6b                	je     803dd8 <PAL_BattleStartFrame+0x80b>
  803d6d:	e9 63 02 00 00       	jmp    803fd5 <PAL_BattleStartFrame+0xa08>
  803d72:	0f b7 45 de          	movzwl -0x22(%ebp),%eax
  803d76:	83 ec 0c             	sub    $0xc,%esp
  803d79:	50                   	push   %eax
  803d7a:	e8 56 df ff ff       	call   801cd5 <PAL_GetPlayerActualDexterity>
  803d7f:	83 c4 10             	add    $0x10,%esp
  803d82:	66 89 45 d6          	mov    %ax,-0x2a(%ebp)
  803d86:	0f b7 45 d6          	movzwl -0x2a(%ebp),%eax
  803d8a:	83 ec 0c             	sub    $0xc,%esp
  803d8d:	50                   	push   %eax
  803d8e:	e8 5a e1 ff ff       	call   801eed <PAL_GetTimeChargingSpeed>
  803d93:	83 c4 10             	add    $0x10,%esp
  803d96:	c7 c2 e0 31 86 00    	mov    $0x8631e0,%edx
  803d9c:	8b 45 f4             	mov    -0xc(%ebp),%eax
  803d9f:	6b c0 3c             	imul   $0x3c,%eax,%eax
  803da2:	01 d0                	add    %edx,%eax
  803da4:	83 c0 08             	add    $0x8,%eax
  803da7:	d9 00                	flds   (%eax)
  803da9:	de c9                	fmulp  %st,%st(1)
  803dab:	c7 c2 e0 31 86 00    	mov    $0x8631e0,%edx
  803db1:	8b 45 f4             	mov    -0xc(%ebp),%eax
  803db4:	6b c0 3c             	imul   $0x3c,%eax,%eax
  803db7:	01 d0                	add    %edx,%eax
  803db9:	83 c0 04             	add    $0x4,%eax
  803dbc:	d9 00                	flds   (%eax)
  803dbe:	de c1                	faddp  %st,%st(1)
  803dc0:	c7 c2 e0 31 86 00    	mov    $0x8631e0,%edx
  803dc6:	8b 45 f4             	mov    -0xc(%ebp),%eax
  803dc9:	6b c0 3c             	imul   $0x3c,%eax,%eax
  803dcc:	01 d0                	add    %edx,%eax
  803dce:	83 c0 04             	add    $0x4,%eax
  803dd1:	d9 18                	fstps  (%eax)
  803dd3:	e9 fd 01 00 00       	jmp    803fd5 <PAL_BattleStartFrame+0xa08>
  803dd8:	c7 c0 5c 24 86 00    	mov    $0x86245c,%eax
  803dde:	8b 08                	mov    (%eax),%ecx
  803de0:	0f b7 55 de          	movzwl -0x22(%ebp),%edx
  803de4:	89 d0                	mov    %edx,%eax
  803de6:	c1 e0 03             	shl    $0x3,%eax
  803de9:	01 d0                	add    %edx,%eax
  803deb:	01 c0                	add    %eax,%eax
  803ded:	01 c8                	add    %ecx,%eax
  803def:	05 84 43 00 00       	add    $0x4384,%eax
  803df4:	0f b7 00             	movzwl (%eax),%eax
  803df7:	66 85 c0             	test   %ax,%ax
  803dfa:	74 31                	je     803e2d <PAL_BattleStartFrame+0x860>
  803dfc:	c7 c2 e0 31 86 00    	mov    $0x8631e0,%edx
  803e02:	8b 45 f4             	mov    -0xc(%ebp),%eax
  803e05:	6b c0 3c             	imul   $0x3c,%eax,%eax
  803e08:	01 d0                	add    %edx,%eax
  803e0a:	83 c0 24             	add    $0x24,%eax
  803e0d:	c7 00 00 00 00 00    	movl   $0x0,(%eax)
  803e13:	c7 c2 e0 31 86 00    	mov    $0x8631e0,%edx
  803e19:	8b 45 f4             	mov    -0xc(%ebp),%eax
  803e1c:	6b c0 3c             	imul   $0x3c,%eax,%eax
  803e1f:	01 d0                	add    %edx,%eax
  803e21:	83 c0 2c             	add    $0x2c,%eax
  803e24:	d9 ee                	fldz   
  803e26:	d9 18                	fstps  (%eax)
  803e28:	e9 a3 00 00 00       	jmp    803ed0 <PAL_BattleStartFrame+0x903>
  803e2d:	c7 c0 5c 24 86 00    	mov    $0x86245c,%eax
  803e33:	8b 08                	mov    (%eax),%ecx
  803e35:	0f b7 55 de          	movzwl -0x22(%ebp),%edx
  803e39:	89 d0                	mov    %edx,%eax
  803e3b:	c1 e0 03             	shl    $0x3,%eax
  803e3e:	01 d0                	add    %edx,%eax
  803e40:	01 c0                	add    %eax,%eax
  803e42:	01 c8                	add    %ecx,%eax
  803e44:	05 80 43 00 00       	add    $0x4380,%eax
  803e49:	0f b7 00             	movzwl (%eax),%eax
  803e4c:	66 85 c0             	test   %ax,%ax
  803e4f:	74 2e                	je     803e7f <PAL_BattleStartFrame+0x8b2>
  803e51:	c7 c2 e0 31 86 00    	mov    $0x8631e0,%edx
